ARM GAS  /tmp/ccCrZfCC.s 			page 1


   1              		.cpu cortex-m4
   2              		.arch armv7e-m
   3              		.fpu fpv4-sp-d16
   4              		.eabi_attribute 27, 1
   5              		.eabi_attribute 28, 1
   6              		.eabi_attribute 20, 1
   7              		.eabi_attribute 21, 1
   8              		.eabi_attribute 23, 3
   9              		.eabi_attribute 24, 1
  10              		.eabi_attribute 25, 1
  11              		.eabi_attribute 26, 1
  12              		.eabi_attribute 30, 1
  13              		.eabi_attribute 34, 1
  14              		.eabi_attribute 18, 4
  15              		.file	"common.c"
  16              		.text
  17              	.Ltext0:
  18              		.cfi_sections	.debug_frame
  19              		.file 1 "../../Util/Src/common.c"
  20              		.section	.rodata.print_float.str1.4,"aMS",%progbits,1
  21              		.align	2
  22              	.LC0:
  23 0000 25642E25 		.ascii	"%d.%02d\012\015\000"
  23      3032640A 
  23      0D00
  24              		.section	.text.print_float,"ax",%progbits
  25              		.align	1
  26              		.global	print_float
  27              		.syntax unified
  28              		.thumb
  29              		.thumb_func
  31              	print_float:
  32              	.LVL0:
  33              	.LFB4:
   1:../../Util/Src/common.c **** #include "common.h"
   2:../../Util/Src/common.c **** 
   3:../../Util/Src/common.c **** void print_float(char * str, float f) {
  34              		.loc 1 3 39 view -0
  35              		.cfi_startproc
  36              		@ args = 0, pretend = 0, frame = 0
  37              		@ frame_needed = 0, uses_anonymous_args = 0
  38              		.loc 1 3 39 is_stmt 0 view .LVU1
  39 0000 08B5     		push	{r3, lr}
  40              	.LCFI0:
  41              		.cfi_def_cfa_offset 8
  42              		.cfi_offset 3, -8
  43              		.cfi_offset 14, -4
  44 0002 2DED028B 		vpush.64	{d8}
  45              	.LCFI1:
  46              		.cfi_def_cfa_offset 16
  47              		.cfi_offset 80, -16
  48              		.cfi_offset 81, -12
  49 0006 B0EE408A 		vmov.f32	s16, s0
   4:../../Util/Src/common.c ****     if(str) printf(str);
  50              		.loc 1 4 5 is_stmt 1 view .LVU2
  51              		.loc 1 4 7 is_stmt 0 view .LVU3
  52 000a 08B1     		cbz	r0, .L2
ARM GAS  /tmp/ccCrZfCC.s 			page 2


  53              		.loc 1 4 13 is_stmt 1 discriminator 1 view .LVU4
  54 000c FFF7FEFF 		bl	printf
  55              	.LVL1:
  56              	.L2:
   5:../../Util/Src/common.c **** 
   6:../../Util/Src/common.c ****     int32_t n = (int32_t)f;
  57              		.loc 1 6 5 view .LVU5
  58              		.loc 1 6 13 is_stmt 0 view .LVU6
  59 0010 FDEEC87A 		vcvt.s32.f32	s15, s16
  60              	.LVL2:
   7:../../Util/Src/common.c ****     f -= n;
  61              		.loc 1 7 5 is_stmt 1 view .LVU7
  62              		.loc 1 7 7 is_stmt 0 view .LVU8
  63 0014 B8EEE77A 		vcvt.f32.s32	s14, s15
  64 0018 38EE478A 		vsub.f32	s16, s16, s14
  65              	.LVL3:
   8:../../Util/Src/common.c ****     f *= 100;
  66              		.loc 1 8 5 is_stmt 1 view .LVU9
  67              		.loc 1 8 7 is_stmt 0 view .LVU10
  68 001c 9FED0C7A 		vldr.32	s14, .L10
  69 0020 28EE078A 		vmul.f32	s16, s16, s14
  70              	.LVL4:
   9:../../Util/Src/common.c ****     int32_t d = (f<0)?-f:f;
  71              		.loc 1 9 5 is_stmt 1 view .LVU11
  72              		.loc 1 9 13 is_stmt 0 view .LVU12
  73 0024 B5EEC08A 		vcmpe.f32	s16, #0
  74 0028 F1EE10FA 		vmrs	APSR_nzcv, FPSCR
  75 002c 0BD4     		bmi	.L9
  76              		.loc 1 9 13 discriminator 2 view .LVU13
  77 002e BDEEC88A 		vcvt.s32.f32	s16, s16
  78              	.LVL5:
  79              	.L5:
  10:../../Util/Src/common.c ****     printf("%d.%02d\n\r", (int)n, (int)d);
  80              		.loc 1 10 5 is_stmt 1 discriminator 4 view .LVU14
  81 0032 18EE102A 		vmov	r2, s16	@ int
  82 0036 17EE901A 		vmov	r1, s15	@ int
  83 003a 0648     		ldr	r0, .L10+4
  84 003c FFF7FEFF 		bl	printf
  85              	.LVL6:
  11:../../Util/Src/common.c **** }
  86              		.loc 1 11 1 is_stmt 0 discriminator 4 view .LVU15
  87 0040 BDEC028B 		vldm	sp!, {d8}
  88              	.LCFI2:
  89              		.cfi_remember_state
  90              		.cfi_restore 80
  91              		.cfi_restore 81
  92              		.cfi_def_cfa_offset 8
  93              	.LVL7:
  94              		.loc 1 11 1 discriminator 4 view .LVU16
  95 0044 08BD     		pop	{r3, pc}
  96              	.LVL8:
  97              	.L9:
  98              	.LCFI3:
  99              		.cfi_restore_state
   9:../../Util/Src/common.c ****     int32_t d = (f<0)?-f:f;
 100              		.loc 1 9 23 discriminator 1 view .LVU17
 101 0046 B1EE488A 		vneg.f32	s16, s16
ARM GAS  /tmp/ccCrZfCC.s 			page 3


 102              	.LVL9:
   9:../../Util/Src/common.c ****     int32_t d = (f<0)?-f:f;
 103              		.loc 1 9 13 discriminator 1 view .LVU18
 104 004a BDEEC88A 		vcvt.s32.f32	s16, s16
 105 004e F0E7     		b	.L5
 106              	.L11:
 107              		.align	2
 108              	.L10:
 109 0050 0000C842 		.word	1120403456
 110 0054 00000000 		.word	.LC0
 111              		.cfi_endproc
 112              	.LFE4:
 114              		.text
 115              	.Letext0:
 116              		.file 2 "/usr/share/arm-gnu-toolchain/arm-none-eabi/include/machine/_default_types.h"
 117              		.file 3 "/usr/share/arm-gnu-toolchain/arm-none-eabi/include/sys/_stdint.h"
 118              		.file 4 "/usr/share/arm-gnu-toolchain/arm-none-eabi/include/stdio.h"
ARM GAS  /tmp/ccCrZfCC.s 			page 4

