ARM GAS  /tmp/cc9ZOIPt.s 			page 1


   1              		.cpu cortex-m4
   2              		.arch armv7e-m
   3              		.fpu fpv4-sp-d16
   4              		.eabi_attribute 27, 1
   5              		.eabi_attribute 28, 1
   6              		.eabi_attribute 20, 1
   7              		.eabi_attribute 21, 1
   8              		.eabi_attribute 23, 3
   9              		.eabi_attribute 24, 1
  10              		.eabi_attribute 25, 1
  11              		.eabi_attribute 26, 1
  12              		.eabi_attribute 30, 1
  13              		.eabi_attribute 34, 1
  14              		.eabi_attribute 18, 4
  15              		.file	"stm32f4xx_hal_rtc_ex.c"
  16              		.text
  17              	.Ltext0:
  18              		.cfi_sections	.debug_frame
  19              		.file 1 "./STM32F4xx_HAL_Driver/Src/stm32f4xx_hal_rtc_ex.c"
  20              		.section	.text.HAL_RTCEx_SetTimeStamp,"ax",%progbits
  21              		.align	1
  22              		.global	HAL_RTCEx_SetTimeStamp
  23              		.syntax unified
  24              		.thumb
  25              		.thumb_func
  27              	HAL_RTCEx_SetTimeStamp:
  28              	.LVL0:
  29              	.LFB216:
   1:./STM32F4xx_HAL_Driver/Src/stm32f4xx_hal_rtc_ex.c **** /**
   2:./STM32F4xx_HAL_Driver/Src/stm32f4xx_hal_rtc_ex.c ****   ******************************************************************************
   3:./STM32F4xx_HAL_Driver/Src/stm32f4xx_hal_rtc_ex.c ****   * @file    stm32f4xx_hal_rtc_ex.c
   4:./STM32F4xx_HAL_Driver/Src/stm32f4xx_hal_rtc_ex.c ****   * @author  MCD Application Team
   5:./STM32F4xx_HAL_Driver/Src/stm32f4xx_hal_rtc_ex.c ****   * @brief   Extended RTC HAL module driver.
   6:./STM32F4xx_HAL_Driver/Src/stm32f4xx_hal_rtc_ex.c ****   *          This file provides firmware functions to manage the following
   7:./STM32F4xx_HAL_Driver/Src/stm32f4xx_hal_rtc_ex.c ****   *          functionalities of the Real-Time Clock (RTC) Extended peripheral:
   8:./STM32F4xx_HAL_Driver/Src/stm32f4xx_hal_rtc_ex.c ****   *           + RTC Timestamp functions
   9:./STM32F4xx_HAL_Driver/Src/stm32f4xx_hal_rtc_ex.c ****   *           + RTC Tamper functions
  10:./STM32F4xx_HAL_Driver/Src/stm32f4xx_hal_rtc_ex.c ****   *           + RTC Wakeup functions
  11:./STM32F4xx_HAL_Driver/Src/stm32f4xx_hal_rtc_ex.c ****   *           + Extended Control functions
  12:./STM32F4xx_HAL_Driver/Src/stm32f4xx_hal_rtc_ex.c ****   *           + Extended RTC features functions
  13:./STM32F4xx_HAL_Driver/Src/stm32f4xx_hal_rtc_ex.c ****   *
  14:./STM32F4xx_HAL_Driver/Src/stm32f4xx_hal_rtc_ex.c ****   ******************************************************************************
  15:./STM32F4xx_HAL_Driver/Src/stm32f4xx_hal_rtc_ex.c ****   * @attention
  16:./STM32F4xx_HAL_Driver/Src/stm32f4xx_hal_rtc_ex.c ****   *
  17:./STM32F4xx_HAL_Driver/Src/stm32f4xx_hal_rtc_ex.c ****   * Copyright (c) 2017 STMicroelectronics.
  18:./STM32F4xx_HAL_Driver/Src/stm32f4xx_hal_rtc_ex.c ****   * All rights reserved.
  19:./STM32F4xx_HAL_Driver/Src/stm32f4xx_hal_rtc_ex.c ****   *
  20:./STM32F4xx_HAL_Driver/Src/stm32f4xx_hal_rtc_ex.c ****   * This software is licensed under terms that can be found in the LICENSE file
  21:./STM32F4xx_HAL_Driver/Src/stm32f4xx_hal_rtc_ex.c ****   * in the root directory of this software component.
  22:./STM32F4xx_HAL_Driver/Src/stm32f4xx_hal_rtc_ex.c ****   * If no LICENSE file comes with this software, it is provided AS-IS.
  23:./STM32F4xx_HAL_Driver/Src/stm32f4xx_hal_rtc_ex.c ****   *
  24:./STM32F4xx_HAL_Driver/Src/stm32f4xx_hal_rtc_ex.c ****   ******************************************************************************
  25:./STM32F4xx_HAL_Driver/Src/stm32f4xx_hal_rtc_ex.c ****   @verbatim
  26:./STM32F4xx_HAL_Driver/Src/stm32f4xx_hal_rtc_ex.c ****   ==============================================================================
  27:./STM32F4xx_HAL_Driver/Src/stm32f4xx_hal_rtc_ex.c ****                         ##### How to use this driver #####
  28:./STM32F4xx_HAL_Driver/Src/stm32f4xx_hal_rtc_ex.c ****   ==============================================================================
  29:./STM32F4xx_HAL_Driver/Src/stm32f4xx_hal_rtc_ex.c ****   [..]
ARM GAS  /tmp/cc9ZOIPt.s 			page 2


  30:./STM32F4xx_HAL_Driver/Src/stm32f4xx_hal_rtc_ex.c ****     (+) Enable the RTC domain access.
  31:./STM32F4xx_HAL_Driver/Src/stm32f4xx_hal_rtc_ex.c ****     (+) Configure the RTC Prescaler (Asynchronous and Synchronous) and RTC hour
  32:./STM32F4xx_HAL_Driver/Src/stm32f4xx_hal_rtc_ex.c ****         format using the HAL_RTC_Init() function.
  33:./STM32F4xx_HAL_Driver/Src/stm32f4xx_hal_rtc_ex.c **** 
  34:./STM32F4xx_HAL_Driver/Src/stm32f4xx_hal_rtc_ex.c ****   *** RTC Wakeup configuration ***
  35:./STM32F4xx_HAL_Driver/Src/stm32f4xx_hal_rtc_ex.c ****   ================================
  36:./STM32F4xx_HAL_Driver/Src/stm32f4xx_hal_rtc_ex.c ****   [..]
  37:./STM32F4xx_HAL_Driver/Src/stm32f4xx_hal_rtc_ex.c ****     (+) To configure the RTC Wakeup Clock source and Counter use the
  38:./STM32F4xx_HAL_Driver/Src/stm32f4xx_hal_rtc_ex.c ****         HAL_RTCEx_SetWakeUpTimer() function.
  39:./STM32F4xx_HAL_Driver/Src/stm32f4xx_hal_rtc_ex.c ****         You can also configure the RTC Wakeup timer in interrupt mode using the
  40:./STM32F4xx_HAL_Driver/Src/stm32f4xx_hal_rtc_ex.c ****         HAL_RTCEx_SetWakeUpTimer_IT() function.
  41:./STM32F4xx_HAL_Driver/Src/stm32f4xx_hal_rtc_ex.c ****     (+) To read the RTC Wakeup Counter register, use the HAL_RTCEx_GetWakeUpTimer()
  42:./STM32F4xx_HAL_Driver/Src/stm32f4xx_hal_rtc_ex.c ****         function.
  43:./STM32F4xx_HAL_Driver/Src/stm32f4xx_hal_rtc_ex.c **** 
  44:./STM32F4xx_HAL_Driver/Src/stm32f4xx_hal_rtc_ex.c ****   *** Timestamp configuration ***
  45:./STM32F4xx_HAL_Driver/Src/stm32f4xx_hal_rtc_ex.c ****   ===============================
  46:./STM32F4xx_HAL_Driver/Src/stm32f4xx_hal_rtc_ex.c ****   [..]
  47:./STM32F4xx_HAL_Driver/Src/stm32f4xx_hal_rtc_ex.c ****     (+) To configure the RTC Timestamp use the HAL_RTCEx_SetTimeStamp() function.
  48:./STM32F4xx_HAL_Driver/Src/stm32f4xx_hal_rtc_ex.c ****         You can also configure the RTC Timestamp with interrupt mode using the
  49:./STM32F4xx_HAL_Driver/Src/stm32f4xx_hal_rtc_ex.c ****         HAL_RTCEx_SetTimeStamp_IT() function.
  50:./STM32F4xx_HAL_Driver/Src/stm32f4xx_hal_rtc_ex.c ****     (+) To read the RTC Timestamp Time and Date register, use the
  51:./STM32F4xx_HAL_Driver/Src/stm32f4xx_hal_rtc_ex.c ****         HAL_RTCEx_GetTimeStamp() function.
  52:./STM32F4xx_HAL_Driver/Src/stm32f4xx_hal_rtc_ex.c ****     (+) The Timestamp alternate function can be mapped either to RTC_AF1 (PC13)
  53:./STM32F4xx_HAL_Driver/Src/stm32f4xx_hal_rtc_ex.c ****         or RTC_AF2 (PI8) depending on the value of TSINSEL bit in RTC_TAFCR
  54:./STM32F4xx_HAL_Driver/Src/stm32f4xx_hal_rtc_ex.c ****         register.
  55:./STM32F4xx_HAL_Driver/Src/stm32f4xx_hal_rtc_ex.c ****         For STM32F446xx devices RTC_AF2 corresponds to pin PA0 and not to pin PI8.
  56:./STM32F4xx_HAL_Driver/Src/stm32f4xx_hal_rtc_ex.c ****         The corresponding pin is also selected by HAL_RTCEx_SetTimeStamp()
  57:./STM32F4xx_HAL_Driver/Src/stm32f4xx_hal_rtc_ex.c ****         or HAL_RTCEx_SetTimeStamp_IT() functions.
  58:./STM32F4xx_HAL_Driver/Src/stm32f4xx_hal_rtc_ex.c **** 
  59:./STM32F4xx_HAL_Driver/Src/stm32f4xx_hal_rtc_ex.c ****   *** Tamper configuration ***
  60:./STM32F4xx_HAL_Driver/Src/stm32f4xx_hal_rtc_ex.c ****   ============================
  61:./STM32F4xx_HAL_Driver/Src/stm32f4xx_hal_rtc_ex.c ****   [..]
  62:./STM32F4xx_HAL_Driver/Src/stm32f4xx_hal_rtc_ex.c ****     (+) To Enable the RTC Tamper and configure the Tamper filter count, trigger
  63:./STM32F4xx_HAL_Driver/Src/stm32f4xx_hal_rtc_ex.c ****         Edge or Level according to the Tamper filter value (if equal to 0 Edge
  64:./STM32F4xx_HAL_Driver/Src/stm32f4xx_hal_rtc_ex.c ****         else Level), sampling frequency, precharge or discharge and Pull-UP use
  65:./STM32F4xx_HAL_Driver/Src/stm32f4xx_hal_rtc_ex.c ****         the HAL_RTCEx_SetTamper() function.
  66:./STM32F4xx_HAL_Driver/Src/stm32f4xx_hal_rtc_ex.c ****         You can configure RTC Tamper in interrupt mode using HAL_RTCEx_SetTamper_IT()
  67:./STM32F4xx_HAL_Driver/Src/stm32f4xx_hal_rtc_ex.c ****         function.
  68:./STM32F4xx_HAL_Driver/Src/stm32f4xx_hal_rtc_ex.c ****     (+) The TAMPER1 alternate function can be mapped either to RTC_AF1 (PC13)
  69:./STM32F4xx_HAL_Driver/Src/stm32f4xx_hal_rtc_ex.c ****         or RTC_AF2 (PI8) depending on the value of TAMP1INSEL bit in RTC_TAFCR
  70:./STM32F4xx_HAL_Driver/Src/stm32f4xx_hal_rtc_ex.c ****         register.
  71:./STM32F4xx_HAL_Driver/Src/stm32f4xx_hal_rtc_ex.c ****         The corresponding pin is also selected by HAL_RTCEx_SetTamper()
  72:./STM32F4xx_HAL_Driver/Src/stm32f4xx_hal_rtc_ex.c ****         or HAL_RTCEx_SetTamper_IT() functions.
  73:./STM32F4xx_HAL_Driver/Src/stm32f4xx_hal_rtc_ex.c ****     (+) The TAMPER2 alternate function is mapped to RTC_AF2 (PI8).
  74:./STM32F4xx_HAL_Driver/Src/stm32f4xx_hal_rtc_ex.c ****         For STM32F446xx devices RTC_AF2 corresponds to pin PA0 and not to pin PI8.
  75:./STM32F4xx_HAL_Driver/Src/stm32f4xx_hal_rtc_ex.c **** 
  76:./STM32F4xx_HAL_Driver/Src/stm32f4xx_hal_rtc_ex.c ****   *** Backup Data Registers configuration ***
  77:./STM32F4xx_HAL_Driver/Src/stm32f4xx_hal_rtc_ex.c ****   ===========================================
  78:./STM32F4xx_HAL_Driver/Src/stm32f4xx_hal_rtc_ex.c ****   [..]
  79:./STM32F4xx_HAL_Driver/Src/stm32f4xx_hal_rtc_ex.c ****     (+) To write to the RTC Backup Data registers, use the HAL_RTCEx_BKUPWrite()
  80:./STM32F4xx_HAL_Driver/Src/stm32f4xx_hal_rtc_ex.c ****         function.
  81:./STM32F4xx_HAL_Driver/Src/stm32f4xx_hal_rtc_ex.c ****     (+) To read the RTC Backup Data registers, use the HAL_RTCEx_BKUPRead()
  82:./STM32F4xx_HAL_Driver/Src/stm32f4xx_hal_rtc_ex.c ****         function.
  83:./STM32F4xx_HAL_Driver/Src/stm32f4xx_hal_rtc_ex.c **** 
  84:./STM32F4xx_HAL_Driver/Src/stm32f4xx_hal_rtc_ex.c ****   *** Coarse Digital Calibration configuration ***
  85:./STM32F4xx_HAL_Driver/Src/stm32f4xx_hal_rtc_ex.c ****   ================================================
  86:./STM32F4xx_HAL_Driver/Src/stm32f4xx_hal_rtc_ex.c ****   [..]
ARM GAS  /tmp/cc9ZOIPt.s 			page 3


  87:./STM32F4xx_HAL_Driver/Src/stm32f4xx_hal_rtc_ex.c ****     (+) The Coarse Digital Calibration can be used to compensate crystal inaccuracy
  88:./STM32F4xx_HAL_Driver/Src/stm32f4xx_hal_rtc_ex.c ****         by setting the DCS bit in RTC_CALIBR register.
  89:./STM32F4xx_HAL_Driver/Src/stm32f4xx_hal_rtc_ex.c ****     (+) When positive calibration is enabled (DCS = ‘0’), 2 asynchronous prescaler
  90:./STM32F4xx_HAL_Driver/Src/stm32f4xx_hal_rtc_ex.c ****         clock cycles are added every minute during 2xDC minutes.
  91:./STM32F4xx_HAL_Driver/Src/stm32f4xx_hal_rtc_ex.c ****         This causes the calendar to be updated sooner, thereby adjusting the
  92:./STM32F4xx_HAL_Driver/Src/stm32f4xx_hal_rtc_ex.c ****         effective RTC frequency to be a bit higher.
  93:./STM32F4xx_HAL_Driver/Src/stm32f4xx_hal_rtc_ex.c ****     (+) When negative calibration is enabled (DCS = ‘1’), 1 asynchronous prescaler
  94:./STM32F4xx_HAL_Driver/Src/stm32f4xx_hal_rtc_ex.c ****         clock cycle is removed every minute during 2xDC minutes.
  95:./STM32F4xx_HAL_Driver/Src/stm32f4xx_hal_rtc_ex.c ****         This causes the calendar to be updated later, thereby adjusting the
  96:./STM32F4xx_HAL_Driver/Src/stm32f4xx_hal_rtc_ex.c ****         effective RTC frequency to be a bit lower.
  97:./STM32F4xx_HAL_Driver/Src/stm32f4xx_hal_rtc_ex.c ****     (+) DC is configured through bits DC[4:0] of RTC_CALIBR register. This number
  98:./STM32F4xx_HAL_Driver/Src/stm32f4xx_hal_rtc_ex.c ****         ranges from 0 to 31 corresponding to a time interval (2xDC) ranging from
  99:./STM32F4xx_HAL_Driver/Src/stm32f4xx_hal_rtc_ex.c ****         0 to 62.
 100:./STM32F4xx_HAL_Driver/Src/stm32f4xx_hal_rtc_ex.c ****     (+) In order to measure the clock deviation, a 512 Hz clock is output for
 101:./STM32F4xx_HAL_Driver/Src/stm32f4xx_hal_rtc_ex.c ****         calibration.
 102:./STM32F4xx_HAL_Driver/Src/stm32f4xx_hal_rtc_ex.c ****     (+) The RTC Coarse Digital Calibration value and sign can be calibrated using
 103:./STM32F4xx_HAL_Driver/Src/stm32f4xx_hal_rtc_ex.c ****         the HAL_RTCEx_SetCoarseCalib() function.
 104:./STM32F4xx_HAL_Driver/Src/stm32f4xx_hal_rtc_ex.c **** 
 105:./STM32F4xx_HAL_Driver/Src/stm32f4xx_hal_rtc_ex.c ****   *** Smooth Digital Calibration configuration ***
 106:./STM32F4xx_HAL_Driver/Src/stm32f4xx_hal_rtc_ex.c ****   ================================================
 107:./STM32F4xx_HAL_Driver/Src/stm32f4xx_hal_rtc_ex.c ****   [..]
 108:./STM32F4xx_HAL_Driver/Src/stm32f4xx_hal_rtc_ex.c ****     (+) RTC frequency can be digitally calibrated with a resolution of about
 109:./STM32F4xx_HAL_Driver/Src/stm32f4xx_hal_rtc_ex.c ****         0.954 ppm with a range from -487.1 ppm to +488.5 ppm.
 110:./STM32F4xx_HAL_Driver/Src/stm32f4xx_hal_rtc_ex.c ****         The correction of the frequency is performed using a series of small
 111:./STM32F4xx_HAL_Driver/Src/stm32f4xx_hal_rtc_ex.c ****         adjustments (adding and/or subtracting individual RTCCLK pulses).
 112:./STM32F4xx_HAL_Driver/Src/stm32f4xx_hal_rtc_ex.c ****     (+) The smooth digital calibration is performed during a cycle of about 2^20
 113:./STM32F4xx_HAL_Driver/Src/stm32f4xx_hal_rtc_ex.c ****         RTCCLK pulses (or 32 seconds) when the input frequency is 32,768 Hz.
 114:./STM32F4xx_HAL_Driver/Src/stm32f4xx_hal_rtc_ex.c ****         This cycle is maintained by a 20-bit counter clocked by RTCCLK.
 115:./STM32F4xx_HAL_Driver/Src/stm32f4xx_hal_rtc_ex.c ****     (+) The smooth calibration register (RTC_CALR) specifies the number of RTCCLK
 116:./STM32F4xx_HAL_Driver/Src/stm32f4xx_hal_rtc_ex.c ****         clock cycles to be masked during the 32-second cycle.
 117:./STM32F4xx_HAL_Driver/Src/stm32f4xx_hal_rtc_ex.c ****     (+) The RTC Smooth Digital Calibration value and the corresponding calibration
 118:./STM32F4xx_HAL_Driver/Src/stm32f4xx_hal_rtc_ex.c ****         cycle period (32s, 16s, or 8s) can be calibrated using the
 119:./STM32F4xx_HAL_Driver/Src/stm32f4xx_hal_rtc_ex.c ****         HAL_RTCEx_SetSmoothCalib() function.
 120:./STM32F4xx_HAL_Driver/Src/stm32f4xx_hal_rtc_ex.c **** 
 121:./STM32F4xx_HAL_Driver/Src/stm32f4xx_hal_rtc_ex.c ****   @endverbatim
 122:./STM32F4xx_HAL_Driver/Src/stm32f4xx_hal_rtc_ex.c ****   ******************************************************************************
 123:./STM32F4xx_HAL_Driver/Src/stm32f4xx_hal_rtc_ex.c ****   */
 124:./STM32F4xx_HAL_Driver/Src/stm32f4xx_hal_rtc_ex.c **** 
 125:./STM32F4xx_HAL_Driver/Src/stm32f4xx_hal_rtc_ex.c **** /* Includes ------------------------------------------------------------------*/
 126:./STM32F4xx_HAL_Driver/Src/stm32f4xx_hal_rtc_ex.c **** #include "stm32f4xx_hal.h"
 127:./STM32F4xx_HAL_Driver/Src/stm32f4xx_hal_rtc_ex.c **** 
 128:./STM32F4xx_HAL_Driver/Src/stm32f4xx_hal_rtc_ex.c **** /** @addtogroup STM32F4xx_HAL_Driver
 129:./STM32F4xx_HAL_Driver/Src/stm32f4xx_hal_rtc_ex.c ****   * @{
 130:./STM32F4xx_HAL_Driver/Src/stm32f4xx_hal_rtc_ex.c ****   */
 131:./STM32F4xx_HAL_Driver/Src/stm32f4xx_hal_rtc_ex.c **** 
 132:./STM32F4xx_HAL_Driver/Src/stm32f4xx_hal_rtc_ex.c **** /** @defgroup RTCEx RTCEx
 133:./STM32F4xx_HAL_Driver/Src/stm32f4xx_hal_rtc_ex.c ****   * @brief    RTC Extended HAL module driver
 134:./STM32F4xx_HAL_Driver/Src/stm32f4xx_hal_rtc_ex.c ****   * @{
 135:./STM32F4xx_HAL_Driver/Src/stm32f4xx_hal_rtc_ex.c ****   */
 136:./STM32F4xx_HAL_Driver/Src/stm32f4xx_hal_rtc_ex.c **** 
 137:./STM32F4xx_HAL_Driver/Src/stm32f4xx_hal_rtc_ex.c **** #ifdef HAL_RTC_MODULE_ENABLED
 138:./STM32F4xx_HAL_Driver/Src/stm32f4xx_hal_rtc_ex.c **** 
 139:./STM32F4xx_HAL_Driver/Src/stm32f4xx_hal_rtc_ex.c **** /* Private typedef -----------------------------------------------------------*/
 140:./STM32F4xx_HAL_Driver/Src/stm32f4xx_hal_rtc_ex.c **** /* Private define ------------------------------------------------------------*/
 141:./STM32F4xx_HAL_Driver/Src/stm32f4xx_hal_rtc_ex.c **** /* Private macro -------------------------------------------------------------*/
 142:./STM32F4xx_HAL_Driver/Src/stm32f4xx_hal_rtc_ex.c **** /* Private variables ---------------------------------------------------------*/
 143:./STM32F4xx_HAL_Driver/Src/stm32f4xx_hal_rtc_ex.c **** /* Private function prototypes -----------------------------------------------*/
ARM GAS  /tmp/cc9ZOIPt.s 			page 4


 144:./STM32F4xx_HAL_Driver/Src/stm32f4xx_hal_rtc_ex.c **** /* Exported functions --------------------------------------------------------*/
 145:./STM32F4xx_HAL_Driver/Src/stm32f4xx_hal_rtc_ex.c **** 
 146:./STM32F4xx_HAL_Driver/Src/stm32f4xx_hal_rtc_ex.c **** /** @defgroup RTCEx_Exported_Functions RTCEx Exported Functions
 147:./STM32F4xx_HAL_Driver/Src/stm32f4xx_hal_rtc_ex.c ****   * @{
 148:./STM32F4xx_HAL_Driver/Src/stm32f4xx_hal_rtc_ex.c ****   */
 149:./STM32F4xx_HAL_Driver/Src/stm32f4xx_hal_rtc_ex.c **** 
 150:./STM32F4xx_HAL_Driver/Src/stm32f4xx_hal_rtc_ex.c **** /** @defgroup RTCEx_Exported_Functions_Group1 RTC Timestamp and Tamper functions
 151:./STM32F4xx_HAL_Driver/Src/stm32f4xx_hal_rtc_ex.c ****   * @brief    RTC Timestamp and Tamper functions
 152:./STM32F4xx_HAL_Driver/Src/stm32f4xx_hal_rtc_ex.c ****   *
 153:./STM32F4xx_HAL_Driver/Src/stm32f4xx_hal_rtc_ex.c **** @verbatim
 154:./STM32F4xx_HAL_Driver/Src/stm32f4xx_hal_rtc_ex.c ****  ===============================================================================
 155:./STM32F4xx_HAL_Driver/Src/stm32f4xx_hal_rtc_ex.c ****                  ##### RTC Timestamp and Tamper functions #####
 156:./STM32F4xx_HAL_Driver/Src/stm32f4xx_hal_rtc_ex.c ****  ===============================================================================
 157:./STM32F4xx_HAL_Driver/Src/stm32f4xx_hal_rtc_ex.c **** 
 158:./STM32F4xx_HAL_Driver/Src/stm32f4xx_hal_rtc_ex.c ****  [..] This section provides functions allowing to configure Timestamp feature
 159:./STM32F4xx_HAL_Driver/Src/stm32f4xx_hal_rtc_ex.c **** 
 160:./STM32F4xx_HAL_Driver/Src/stm32f4xx_hal_rtc_ex.c **** @endverbatim
 161:./STM32F4xx_HAL_Driver/Src/stm32f4xx_hal_rtc_ex.c ****   * @{
 162:./STM32F4xx_HAL_Driver/Src/stm32f4xx_hal_rtc_ex.c ****   */
 163:./STM32F4xx_HAL_Driver/Src/stm32f4xx_hal_rtc_ex.c **** 
 164:./STM32F4xx_HAL_Driver/Src/stm32f4xx_hal_rtc_ex.c **** /**
 165:./STM32F4xx_HAL_Driver/Src/stm32f4xx_hal_rtc_ex.c ****   * @brief  Sets Timestamp.
 166:./STM32F4xx_HAL_Driver/Src/stm32f4xx_hal_rtc_ex.c ****   * @note   This API must be called before enabling the Timestamp feature.
 167:./STM32F4xx_HAL_Driver/Src/stm32f4xx_hal_rtc_ex.c ****   * @param  hrtc pointer to a RTC_HandleTypeDef structure that contains
 168:./STM32F4xx_HAL_Driver/Src/stm32f4xx_hal_rtc_ex.c ****   *                the configuration information for RTC.
 169:./STM32F4xx_HAL_Driver/Src/stm32f4xx_hal_rtc_ex.c ****   * @param  RTC_TimeStampEdge Specifies the pin edge on which the Timestamp is
 170:./STM32F4xx_HAL_Driver/Src/stm32f4xx_hal_rtc_ex.c ****   *         activated.
 171:./STM32F4xx_HAL_Driver/Src/stm32f4xx_hal_rtc_ex.c ****   *          This parameter can be one of the following values:
 172:./STM32F4xx_HAL_Driver/Src/stm32f4xx_hal_rtc_ex.c ****   *             @arg RTC_TIMESTAMPEDGE_RISING: the Timestamp event occurs on
 173:./STM32F4xx_HAL_Driver/Src/stm32f4xx_hal_rtc_ex.c ****   *                                        the rising edge of the related pin.
 174:./STM32F4xx_HAL_Driver/Src/stm32f4xx_hal_rtc_ex.c ****   *             @arg RTC_TIMESTAMPEDGE_FALLING: the Timestamp event occurs on
 175:./STM32F4xx_HAL_Driver/Src/stm32f4xx_hal_rtc_ex.c ****   *                                        the falling edge of the related pin.
 176:./STM32F4xx_HAL_Driver/Src/stm32f4xx_hal_rtc_ex.c ****   * @param  RTC_TimeStampPin Specifies the RTC Timestamp Pin.
 177:./STM32F4xx_HAL_Driver/Src/stm32f4xx_hal_rtc_ex.c ****   *          This parameter can be one of the following values:
 178:./STM32F4xx_HAL_Driver/Src/stm32f4xx_hal_rtc_ex.c ****   *             @arg RTC_TIMESTAMPPIN_DEFAULT: PC13 is selected as RTC Timestamp Pin.
 179:./STM32F4xx_HAL_Driver/Src/stm32f4xx_hal_rtc_ex.c ****   *             @arg RTC_TIMESTAMPPIN_POS1: PI8 is selected as RTC Timestamp Pin.
 180:./STM32F4xx_HAL_Driver/Src/stm32f4xx_hal_rtc_ex.c ****   * @note RTC_TIMESTAMPPIN_POS1 corresponds to pin PA0 in the case of
 181:./STM32F4xx_HAL_Driver/Src/stm32f4xx_hal_rtc_ex.c ****   *       STM32F446xx devices.
 182:./STM32F4xx_HAL_Driver/Src/stm32f4xx_hal_rtc_ex.c ****   * @note RTC_TIMESTAMPPIN_POS1 is not applicable to the following list of devices:
 183:./STM32F4xx_HAL_Driver/Src/stm32f4xx_hal_rtc_ex.c ****   *       STM32F412xx, STM32F413xx and STM32F423xx.
 184:./STM32F4xx_HAL_Driver/Src/stm32f4xx_hal_rtc_ex.c ****   * @retval HAL status
 185:./STM32F4xx_HAL_Driver/Src/stm32f4xx_hal_rtc_ex.c ****   */
 186:./STM32F4xx_HAL_Driver/Src/stm32f4xx_hal_rtc_ex.c **** HAL_StatusTypeDef HAL_RTCEx_SetTimeStamp(RTC_HandleTypeDef *hrtc, uint32_t RTC_TimeStampEdge, uint3
 187:./STM32F4xx_HAL_Driver/Src/stm32f4xx_hal_rtc_ex.c **** {
  30              		.loc 1 187 1 view -0
  31              		.cfi_startproc
  32              		@ args = 0, pretend = 0, frame = 0
  33              		@ frame_needed = 0, uses_anonymous_args = 0
  34              		@ link register save eliminated.
  35              		.loc 1 187 1 is_stmt 0 view .LVU1
  36 0000 0346     		mov	r3, r0
 188:./STM32F4xx_HAL_Driver/Src/stm32f4xx_hal_rtc_ex.c ****   uint32_t tmpreg = 0U;
  37              		.loc 1 188 3 is_stmt 1 view .LVU2
  38              	.LVL1:
 189:./STM32F4xx_HAL_Driver/Src/stm32f4xx_hal_rtc_ex.c **** 
 190:./STM32F4xx_HAL_Driver/Src/stm32f4xx_hal_rtc_ex.c ****   /* Check the parameters */
 191:./STM32F4xx_HAL_Driver/Src/stm32f4xx_hal_rtc_ex.c ****   assert_param(IS_TIMESTAMP_EDGE(RTC_TimeStampEdge));
ARM GAS  /tmp/cc9ZOIPt.s 			page 5


  39              		.loc 1 191 3 view .LVU3
 192:./STM32F4xx_HAL_Driver/Src/stm32f4xx_hal_rtc_ex.c ****   assert_param(IS_RTC_TIMESTAMP_PIN(RTC_TimeStampPin));
  40              		.loc 1 192 3 view .LVU4
 193:./STM32F4xx_HAL_Driver/Src/stm32f4xx_hal_rtc_ex.c **** 
 194:./STM32F4xx_HAL_Driver/Src/stm32f4xx_hal_rtc_ex.c ****   /* Process Locked */
 195:./STM32F4xx_HAL_Driver/Src/stm32f4xx_hal_rtc_ex.c ****   __HAL_LOCK(hrtc);
  41              		.loc 1 195 3 view .LVU5
  42              		.loc 1 195 3 view .LVU6
  43 0002 007F     		ldrb	r0, [r0, #28]	@ zero_extendqisi2
  44              	.LVL2:
  45              		.loc 1 195 3 is_stmt 0 view .LVU7
  46 0004 0128     		cmp	r0, #1
  47 0006 34D0     		beq	.L3
 187:./STM32F4xx_HAL_Driver/Src/stm32f4xx_hal_rtc_ex.c ****   uint32_t tmpreg = 0U;
  48              		.loc 1 187 1 discriminator 2 view .LVU8
  49 0008 30B4     		push	{r4, r5}
  50              	.LCFI0:
  51              		.cfi_def_cfa_offset 8
  52              		.cfi_offset 4, -8
  53              		.cfi_offset 5, -4
  54              		.loc 1 195 3 is_stmt 1 discriminator 2 view .LVU9
  55 000a 0120     		movs	r0, #1
  56 000c 1877     		strb	r0, [r3, #28]
  57              		.loc 1 195 3 discriminator 2 view .LVU10
 196:./STM32F4xx_HAL_Driver/Src/stm32f4xx_hal_rtc_ex.c **** 
 197:./STM32F4xx_HAL_Driver/Src/stm32f4xx_hal_rtc_ex.c ****   /* Change RTC state to BUSY */
 198:./STM32F4xx_HAL_Driver/Src/stm32f4xx_hal_rtc_ex.c ****   hrtc->State = HAL_RTC_STATE_BUSY;
  58              		.loc 1 198 3 discriminator 2 view .LVU11
  59              		.loc 1 198 15 is_stmt 0 discriminator 2 view .LVU12
  60 000e 0224     		movs	r4, #2
  61 0010 5C77     		strb	r4, [r3, #29]
 199:./STM32F4xx_HAL_Driver/Src/stm32f4xx_hal_rtc_ex.c **** 
 200:./STM32F4xx_HAL_Driver/Src/stm32f4xx_hal_rtc_ex.c ****   hrtc->Instance->TAFCR &= (uint32_t)~RTC_TAFCR_TSINSEL;
  62              		.loc 1 200 3 is_stmt 1 discriminator 2 view .LVU13
  63              		.loc 1 200 7 is_stmt 0 discriminator 2 view .LVU14
  64 0012 1D68     		ldr	r5, [r3]
  65              		.loc 1 200 17 discriminator 2 view .LVU15
  66 0014 2C6C     		ldr	r4, [r5, #64]
  67              		.loc 1 200 25 discriminator 2 view .LVU16
  68 0016 24F40034 		bic	r4, r4, #131072
  69 001a 2C64     		str	r4, [r5, #64]
 201:./STM32F4xx_HAL_Driver/Src/stm32f4xx_hal_rtc_ex.c ****   hrtc->Instance->TAFCR |= (uint32_t)(RTC_TimeStampPin);
  70              		.loc 1 201 3 is_stmt 1 discriminator 2 view .LVU17
  71              		.loc 1 201 7 is_stmt 0 discriminator 2 view .LVU18
  72 001c 1D68     		ldr	r5, [r3]
  73              		.loc 1 201 17 discriminator 2 view .LVU19
  74 001e 2C6C     		ldr	r4, [r5, #64]
  75              		.loc 1 201 25 discriminator 2 view .LVU20
  76 0020 2243     		orrs	r2, r2, r4
  77              	.LVL3:
  78              		.loc 1 201 25 discriminator 2 view .LVU21
  79 0022 2A64     		str	r2, [r5, #64]
 202:./STM32F4xx_HAL_Driver/Src/stm32f4xx_hal_rtc_ex.c **** 
 203:./STM32F4xx_HAL_Driver/Src/stm32f4xx_hal_rtc_ex.c ****   /* Get the RTC_CR register and clear the bits to be configured */
 204:./STM32F4xx_HAL_Driver/Src/stm32f4xx_hal_rtc_ex.c ****   tmpreg = (uint32_t)(hrtc->Instance->CR & (uint32_t)~(RTC_CR_TSEDGE | RTC_CR_TSE));
  80              		.loc 1 204 3 is_stmt 1 discriminator 2 view .LVU22
  81              		.loc 1 204 27 is_stmt 0 discriminator 2 view .LVU23
ARM GAS  /tmp/cc9ZOIPt.s 			page 6


  82 0024 1C68     		ldr	r4, [r3]
  83              		.loc 1 204 37 discriminator 2 view .LVU24
  84 0026 A268     		ldr	r2, [r4, #8]
  85              		.loc 1 204 10 discriminator 2 view .LVU25
  86 0028 22F40062 		bic	r2, r2, #2048
  87 002c 22F00802 		bic	r2, r2, #8
  88              	.LVL4:
 205:./STM32F4xx_HAL_Driver/Src/stm32f4xx_hal_rtc_ex.c **** 
 206:./STM32F4xx_HAL_Driver/Src/stm32f4xx_hal_rtc_ex.c ****   /* Configure the Timestamp TSEDGE bit */
 207:./STM32F4xx_HAL_Driver/Src/stm32f4xx_hal_rtc_ex.c ****   tmpreg |= RTC_TimeStampEdge;
  89              		.loc 1 207 3 is_stmt 1 discriminator 2 view .LVU26
  90              		.loc 1 207 10 is_stmt 0 discriminator 2 view .LVU27
  91 0030 0A43     		orrs	r2, r2, r1
  92              	.LVL5:
 208:./STM32F4xx_HAL_Driver/Src/stm32f4xx_hal_rtc_ex.c **** 
 209:./STM32F4xx_HAL_Driver/Src/stm32f4xx_hal_rtc_ex.c ****   /* Disable the write protection for RTC registers */
 210:./STM32F4xx_HAL_Driver/Src/stm32f4xx_hal_rtc_ex.c ****   __HAL_RTC_WRITEPROTECTION_DISABLE(hrtc);
  93              		.loc 1 210 3 is_stmt 1 discriminator 2 view .LVU28
  94              		.loc 1 210 3 discriminator 2 view .LVU29
  95 0032 CA21     		movs	r1, #202
  96              	.LVL6:
  97              		.loc 1 210 3 is_stmt 0 discriminator 2 view .LVU30
  98 0034 6162     		str	r1, [r4, #36]
  99              		.loc 1 210 3 is_stmt 1 discriminator 2 view .LVU31
 100 0036 1968     		ldr	r1, [r3]
 101 0038 5324     		movs	r4, #83
 102 003a 4C62     		str	r4, [r1, #36]
 103              		.loc 1 210 3 discriminator 2 view .LVU32
 211:./STM32F4xx_HAL_Driver/Src/stm32f4xx_hal_rtc_ex.c **** 
 212:./STM32F4xx_HAL_Driver/Src/stm32f4xx_hal_rtc_ex.c ****   /* Copy the desired configuration into the CR register */
 213:./STM32F4xx_HAL_Driver/Src/stm32f4xx_hal_rtc_ex.c ****   hrtc->Instance->CR = (uint32_t)tmpreg;
 104              		.loc 1 213 3 discriminator 2 view .LVU33
 105              		.loc 1 213 7 is_stmt 0 discriminator 2 view .LVU34
 106 003c 1968     		ldr	r1, [r3]
 107              		.loc 1 213 22 discriminator 2 view .LVU35
 108 003e 8A60     		str	r2, [r1, #8]
 214:./STM32F4xx_HAL_Driver/Src/stm32f4xx_hal_rtc_ex.c **** 
 215:./STM32F4xx_HAL_Driver/Src/stm32f4xx_hal_rtc_ex.c ****   /* Clear RTC Timestamp flag */
 216:./STM32F4xx_HAL_Driver/Src/stm32f4xx_hal_rtc_ex.c ****   __HAL_RTC_TIMESTAMP_CLEAR_FLAG(hrtc, RTC_FLAG_TSF);
 109              		.loc 1 216 3 is_stmt 1 discriminator 2 view .LVU36
 110 0040 1968     		ldr	r1, [r3]
 111 0042 CA68     		ldr	r2, [r1, #12]
 112              	.LVL7:
 113              		.loc 1 216 3 is_stmt 0 discriminator 2 view .LVU37
 114 0044 D2B2     		uxtb	r2, r2
 115 0046 62F40862 		orn	r2, r2, #2176
 116 004a CA60     		str	r2, [r1, #12]
 217:./STM32F4xx_HAL_Driver/Src/stm32f4xx_hal_rtc_ex.c **** 
 218:./STM32F4xx_HAL_Driver/Src/stm32f4xx_hal_rtc_ex.c ****   /* Clear RTC Timestamp overrun Flag */
 219:./STM32F4xx_HAL_Driver/Src/stm32f4xx_hal_rtc_ex.c ****   __HAL_RTC_TIMESTAMP_CLEAR_FLAG(hrtc, RTC_FLAG_TSOVF);
 117              		.loc 1 219 3 is_stmt 1 discriminator 2 view .LVU38
 118 004c 1968     		ldr	r1, [r3]
 119 004e CA68     		ldr	r2, [r1, #12]
 120 0050 D2B2     		uxtb	r2, r2
 121 0052 62F48452 		orn	r2, r2, #4224
 122 0056 CA60     		str	r2, [r1, #12]
 220:./STM32F4xx_HAL_Driver/Src/stm32f4xx_hal_rtc_ex.c **** 
ARM GAS  /tmp/cc9ZOIPt.s 			page 7


 221:./STM32F4xx_HAL_Driver/Src/stm32f4xx_hal_rtc_ex.c ****   /* Enable the Timestamp saving */
 222:./STM32F4xx_HAL_Driver/Src/stm32f4xx_hal_rtc_ex.c ****   __HAL_RTC_TIMESTAMP_ENABLE(hrtc);
 123              		.loc 1 222 3 discriminator 2 view .LVU39
 124 0058 1968     		ldr	r1, [r3]
 125 005a 8A68     		ldr	r2, [r1, #8]
 126 005c 42F40062 		orr	r2, r2, #2048
 127 0060 8A60     		str	r2, [r1, #8]
 223:./STM32F4xx_HAL_Driver/Src/stm32f4xx_hal_rtc_ex.c **** 
 224:./STM32F4xx_HAL_Driver/Src/stm32f4xx_hal_rtc_ex.c ****   /* Enable the write protection for RTC registers */
 225:./STM32F4xx_HAL_Driver/Src/stm32f4xx_hal_rtc_ex.c ****   __HAL_RTC_WRITEPROTECTION_ENABLE(hrtc);
 128              		.loc 1 225 3 discriminator 2 view .LVU40
 129              		.loc 1 225 3 discriminator 2 view .LVU41
 130 0062 1A68     		ldr	r2, [r3]
 131 0064 FF21     		movs	r1, #255
 132 0066 5162     		str	r1, [r2, #36]
 133              		.loc 1 225 3 discriminator 2 view .LVU42
 226:./STM32F4xx_HAL_Driver/Src/stm32f4xx_hal_rtc_ex.c **** 
 227:./STM32F4xx_HAL_Driver/Src/stm32f4xx_hal_rtc_ex.c ****   /* Change RTC state back to READY */
 228:./STM32F4xx_HAL_Driver/Src/stm32f4xx_hal_rtc_ex.c ****   hrtc->State = HAL_RTC_STATE_READY;
 134              		.loc 1 228 3 discriminator 2 view .LVU43
 135              		.loc 1 228 15 is_stmt 0 discriminator 2 view .LVU44
 136 0068 5877     		strb	r0, [r3, #29]
 229:./STM32F4xx_HAL_Driver/Src/stm32f4xx_hal_rtc_ex.c **** 
 230:./STM32F4xx_HAL_Driver/Src/stm32f4xx_hal_rtc_ex.c ****   /* Process Unlocked */
 231:./STM32F4xx_HAL_Driver/Src/stm32f4xx_hal_rtc_ex.c ****   __HAL_UNLOCK(hrtc);
 137              		.loc 1 231 3 is_stmt 1 discriminator 2 view .LVU45
 138              		.loc 1 231 3 discriminator 2 view .LVU46
 139 006a 0020     		movs	r0, #0
 140 006c 1877     		strb	r0, [r3, #28]
 141              		.loc 1 231 3 discriminator 2 view .LVU47
 232:./STM32F4xx_HAL_Driver/Src/stm32f4xx_hal_rtc_ex.c **** 
 233:./STM32F4xx_HAL_Driver/Src/stm32f4xx_hal_rtc_ex.c ****   return HAL_OK;
 142              		.loc 1 233 3 discriminator 2 view .LVU48
 234:./STM32F4xx_HAL_Driver/Src/stm32f4xx_hal_rtc_ex.c **** }
 143              		.loc 1 234 1 is_stmt 0 discriminator 2 view .LVU49
 144 006e 30BC     		pop	{r4, r5}
 145              	.LCFI1:
 146              		.cfi_restore 5
 147              		.cfi_restore 4
 148              		.cfi_def_cfa_offset 0
 149 0070 7047     		bx	lr
 150              	.LVL8:
 151              	.L3:
 195:./STM32F4xx_HAL_Driver/Src/stm32f4xx_hal_rtc_ex.c **** 
 152              		.loc 1 195 3 view .LVU50
 153 0072 0220     		movs	r0, #2
 154              		.loc 1 234 1 view .LVU51
 155 0074 7047     		bx	lr
 156              		.cfi_endproc
 157              	.LFE216:
 159              		.section	.text.HAL_RTCEx_SetTimeStamp_IT,"ax",%progbits
 160              		.align	1
 161              		.global	HAL_RTCEx_SetTimeStamp_IT
 162              		.syntax unified
 163              		.thumb
 164              		.thumb_func
 166              	HAL_RTCEx_SetTimeStamp_IT:
ARM GAS  /tmp/cc9ZOIPt.s 			page 8


 167              	.LVL9:
 168              	.LFB217:
 235:./STM32F4xx_HAL_Driver/Src/stm32f4xx_hal_rtc_ex.c **** 
 236:./STM32F4xx_HAL_Driver/Src/stm32f4xx_hal_rtc_ex.c **** /**
 237:./STM32F4xx_HAL_Driver/Src/stm32f4xx_hal_rtc_ex.c ****   * @brief  Sets Timestamp with Interrupt.
 238:./STM32F4xx_HAL_Driver/Src/stm32f4xx_hal_rtc_ex.c ****   * @param  hrtc pointer to a RTC_HandleTypeDef structure that contains
 239:./STM32F4xx_HAL_Driver/Src/stm32f4xx_hal_rtc_ex.c ****   *                the configuration information for RTC.
 240:./STM32F4xx_HAL_Driver/Src/stm32f4xx_hal_rtc_ex.c ****   * @note   This API must be called before enabling the Timestamp feature.
 241:./STM32F4xx_HAL_Driver/Src/stm32f4xx_hal_rtc_ex.c ****   * @param  RTC_TimeStampEdge Specifies the pin edge on which the Timestamp is
 242:./STM32F4xx_HAL_Driver/Src/stm32f4xx_hal_rtc_ex.c ****   *         activated.
 243:./STM32F4xx_HAL_Driver/Src/stm32f4xx_hal_rtc_ex.c ****   *          This parameter can be one of the following values:
 244:./STM32F4xx_HAL_Driver/Src/stm32f4xx_hal_rtc_ex.c ****   *             @arg RTC_TIMESTAMPEDGE_RISING: the Timestamp event occurs on
 245:./STM32F4xx_HAL_Driver/Src/stm32f4xx_hal_rtc_ex.c ****   *                                        the rising edge of the related pin.
 246:./STM32F4xx_HAL_Driver/Src/stm32f4xx_hal_rtc_ex.c ****   *             @arg RTC_TIMESTAMPEDGE_FALLING: the Timestamp event occurs on
 247:./STM32F4xx_HAL_Driver/Src/stm32f4xx_hal_rtc_ex.c ****   *                                        the falling edge of the related pin.
 248:./STM32F4xx_HAL_Driver/Src/stm32f4xx_hal_rtc_ex.c ****   * @param  RTC_TimeStampPin Specifies the RTC Timestamp Pin.
 249:./STM32F4xx_HAL_Driver/Src/stm32f4xx_hal_rtc_ex.c ****   *          This parameter can be one of the following values:
 250:./STM32F4xx_HAL_Driver/Src/stm32f4xx_hal_rtc_ex.c ****   *             @arg RTC_TIMESTAMPPIN_DEFAULT: PC13 is selected as RTC Timestamp Pin.
 251:./STM32F4xx_HAL_Driver/Src/stm32f4xx_hal_rtc_ex.c ****   *             @arg RTC_TIMESTAMPPIN_POS1: PI8 is selected as RTC Timestamp Pin.
 252:./STM32F4xx_HAL_Driver/Src/stm32f4xx_hal_rtc_ex.c ****   * @note RTC_TIMESTAMPPIN_POS1 corresponds to pin PA0 in the case of
 253:./STM32F4xx_HAL_Driver/Src/stm32f4xx_hal_rtc_ex.c ****   *       STM32F446xx devices.
 254:./STM32F4xx_HAL_Driver/Src/stm32f4xx_hal_rtc_ex.c ****   * @note RTC_TIMESTAMPPIN_POS1 is not applicable to the following list of devices:
 255:./STM32F4xx_HAL_Driver/Src/stm32f4xx_hal_rtc_ex.c ****   *       STM32F412xx, STM32F413xx and STM32F423xx.
 256:./STM32F4xx_HAL_Driver/Src/stm32f4xx_hal_rtc_ex.c ****   * @retval HAL status
 257:./STM32F4xx_HAL_Driver/Src/stm32f4xx_hal_rtc_ex.c ****   */
 258:./STM32F4xx_HAL_Driver/Src/stm32f4xx_hal_rtc_ex.c **** HAL_StatusTypeDef HAL_RTCEx_SetTimeStamp_IT(RTC_HandleTypeDef *hrtc, uint32_t RTC_TimeStampEdge, ui
 259:./STM32F4xx_HAL_Driver/Src/stm32f4xx_hal_rtc_ex.c **** {
 169              		.loc 1 259 1 is_stmt 1 view -0
 170              		.cfi_startproc
 171              		@ args = 0, pretend = 0, frame = 0
 172              		@ frame_needed = 0, uses_anonymous_args = 0
 173              		@ link register save eliminated.
 174              		.loc 1 259 1 is_stmt 0 view .LVU53
 175 0000 0346     		mov	r3, r0
 260:./STM32F4xx_HAL_Driver/Src/stm32f4xx_hal_rtc_ex.c ****   uint32_t tmpreg = 0U;
 176              		.loc 1 260 3 is_stmt 1 view .LVU54
 177              	.LVL10:
 261:./STM32F4xx_HAL_Driver/Src/stm32f4xx_hal_rtc_ex.c **** 
 262:./STM32F4xx_HAL_Driver/Src/stm32f4xx_hal_rtc_ex.c ****   /* Check the parameters */
 263:./STM32F4xx_HAL_Driver/Src/stm32f4xx_hal_rtc_ex.c ****   assert_param(IS_TIMESTAMP_EDGE(RTC_TimeStampEdge));
 178              		.loc 1 263 3 view .LVU55
 264:./STM32F4xx_HAL_Driver/Src/stm32f4xx_hal_rtc_ex.c ****   assert_param(IS_RTC_TIMESTAMP_PIN(RTC_TimeStampPin));
 179              		.loc 1 264 3 view .LVU56
 265:./STM32F4xx_HAL_Driver/Src/stm32f4xx_hal_rtc_ex.c **** 
 266:./STM32F4xx_HAL_Driver/Src/stm32f4xx_hal_rtc_ex.c ****   /* Process Locked */
 267:./STM32F4xx_HAL_Driver/Src/stm32f4xx_hal_rtc_ex.c ****   __HAL_LOCK(hrtc);
 180              		.loc 1 267 3 view .LVU57
 181              		.loc 1 267 3 view .LVU58
 182 0002 007F     		ldrb	r0, [r0, #28]	@ zero_extendqisi2
 183              	.LVL11:
 184              		.loc 1 267 3 is_stmt 0 view .LVU59
 185 0004 0128     		cmp	r0, #1
 186 0006 42D0     		beq	.L10
 259:./STM32F4xx_HAL_Driver/Src/stm32f4xx_hal_rtc_ex.c ****   uint32_t tmpreg = 0U;
 187              		.loc 1 259 1 discriminator 2 view .LVU60
 188 0008 30B4     		push	{r4, r5}
 189              	.LCFI2:
ARM GAS  /tmp/cc9ZOIPt.s 			page 9


 190              		.cfi_def_cfa_offset 8
 191              		.cfi_offset 4, -8
 192              		.cfi_offset 5, -4
 193              		.loc 1 267 3 is_stmt 1 discriminator 2 view .LVU61
 194 000a 0120     		movs	r0, #1
 195 000c 1877     		strb	r0, [r3, #28]
 196              		.loc 1 267 3 discriminator 2 view .LVU62
 268:./STM32F4xx_HAL_Driver/Src/stm32f4xx_hal_rtc_ex.c **** 
 269:./STM32F4xx_HAL_Driver/Src/stm32f4xx_hal_rtc_ex.c ****   /* Change RTC state to BUSY */
 270:./STM32F4xx_HAL_Driver/Src/stm32f4xx_hal_rtc_ex.c ****   hrtc->State = HAL_RTC_STATE_BUSY;
 197              		.loc 1 270 3 discriminator 2 view .LVU63
 198              		.loc 1 270 15 is_stmt 0 discriminator 2 view .LVU64
 199 000e 0224     		movs	r4, #2
 200 0010 5C77     		strb	r4, [r3, #29]
 271:./STM32F4xx_HAL_Driver/Src/stm32f4xx_hal_rtc_ex.c **** 
 272:./STM32F4xx_HAL_Driver/Src/stm32f4xx_hal_rtc_ex.c ****   hrtc->Instance->TAFCR &= (uint32_t)~RTC_TAFCR_TSINSEL;
 201              		.loc 1 272 3 is_stmt 1 discriminator 2 view .LVU65
 202              		.loc 1 272 7 is_stmt 0 discriminator 2 view .LVU66
 203 0012 1D68     		ldr	r5, [r3]
 204              		.loc 1 272 17 discriminator 2 view .LVU67
 205 0014 2C6C     		ldr	r4, [r5, #64]
 206              		.loc 1 272 25 discriminator 2 view .LVU68
 207 0016 24F40034 		bic	r4, r4, #131072
 208 001a 2C64     		str	r4, [r5, #64]
 273:./STM32F4xx_HAL_Driver/Src/stm32f4xx_hal_rtc_ex.c ****   hrtc->Instance->TAFCR |= (uint32_t)(RTC_TimeStampPin);
 209              		.loc 1 273 3 is_stmt 1 discriminator 2 view .LVU69
 210              		.loc 1 273 7 is_stmt 0 discriminator 2 view .LVU70
 211 001c 1D68     		ldr	r5, [r3]
 212              		.loc 1 273 17 discriminator 2 view .LVU71
 213 001e 2C6C     		ldr	r4, [r5, #64]
 214              		.loc 1 273 25 discriminator 2 view .LVU72
 215 0020 2243     		orrs	r2, r2, r4
 216              	.LVL12:
 217              		.loc 1 273 25 discriminator 2 view .LVU73
 218 0022 2A64     		str	r2, [r5, #64]
 274:./STM32F4xx_HAL_Driver/Src/stm32f4xx_hal_rtc_ex.c **** 
 275:./STM32F4xx_HAL_Driver/Src/stm32f4xx_hal_rtc_ex.c ****   /* Get the RTC_CR register and clear the bits to be configured */
 276:./STM32F4xx_HAL_Driver/Src/stm32f4xx_hal_rtc_ex.c ****   tmpreg = (uint32_t)(hrtc->Instance->CR & (uint32_t)~(RTC_CR_TSEDGE | RTC_CR_TSE));
 219              		.loc 1 276 3 is_stmt 1 discriminator 2 view .LVU74
 220              		.loc 1 276 27 is_stmt 0 discriminator 2 view .LVU75
 221 0024 1C68     		ldr	r4, [r3]
 222              		.loc 1 276 37 discriminator 2 view .LVU76
 223 0026 A268     		ldr	r2, [r4, #8]
 224              		.loc 1 276 10 discriminator 2 view .LVU77
 225 0028 22F40062 		bic	r2, r2, #2048
 226 002c 22F00802 		bic	r2, r2, #8
 227              	.LVL13:
 277:./STM32F4xx_HAL_Driver/Src/stm32f4xx_hal_rtc_ex.c **** 
 278:./STM32F4xx_HAL_Driver/Src/stm32f4xx_hal_rtc_ex.c ****   /* Configure the Timestamp TSEDGE bit */
 279:./STM32F4xx_HAL_Driver/Src/stm32f4xx_hal_rtc_ex.c ****   tmpreg |= RTC_TimeStampEdge;
 228              		.loc 1 279 3 is_stmt 1 discriminator 2 view .LVU78
 229              		.loc 1 279 10 is_stmt 0 discriminator 2 view .LVU79
 230 0030 0A43     		orrs	r2, r2, r1
 231              	.LVL14:
 280:./STM32F4xx_HAL_Driver/Src/stm32f4xx_hal_rtc_ex.c **** 
 281:./STM32F4xx_HAL_Driver/Src/stm32f4xx_hal_rtc_ex.c ****   /* Disable the write protection for RTC registers */
 282:./STM32F4xx_HAL_Driver/Src/stm32f4xx_hal_rtc_ex.c ****   __HAL_RTC_WRITEPROTECTION_DISABLE(hrtc);
ARM GAS  /tmp/cc9ZOIPt.s 			page 10


 232              		.loc 1 282 3 is_stmt 1 discriminator 2 view .LVU80
 233              		.loc 1 282 3 discriminator 2 view .LVU81
 234 0032 CA21     		movs	r1, #202
 235              	.LVL15:
 236              		.loc 1 282 3 is_stmt 0 discriminator 2 view .LVU82
 237 0034 6162     		str	r1, [r4, #36]
 238              		.loc 1 282 3 is_stmt 1 discriminator 2 view .LVU83
 239 0036 1968     		ldr	r1, [r3]
 240 0038 5324     		movs	r4, #83
 241 003a 4C62     		str	r4, [r1, #36]
 242              		.loc 1 282 3 discriminator 2 view .LVU84
 283:./STM32F4xx_HAL_Driver/Src/stm32f4xx_hal_rtc_ex.c **** 
 284:./STM32F4xx_HAL_Driver/Src/stm32f4xx_hal_rtc_ex.c ****   /* Copy the desired configuration into the CR register */
 285:./STM32F4xx_HAL_Driver/Src/stm32f4xx_hal_rtc_ex.c ****   hrtc->Instance->CR = (uint32_t)tmpreg;
 243              		.loc 1 285 3 discriminator 2 view .LVU85
 244              		.loc 1 285 7 is_stmt 0 discriminator 2 view .LVU86
 245 003c 1968     		ldr	r1, [r3]
 246              		.loc 1 285 22 discriminator 2 view .LVU87
 247 003e 8A60     		str	r2, [r1, #8]
 286:./STM32F4xx_HAL_Driver/Src/stm32f4xx_hal_rtc_ex.c **** 
 287:./STM32F4xx_HAL_Driver/Src/stm32f4xx_hal_rtc_ex.c ****   /* Clear RTC Timestamp flag */
 288:./STM32F4xx_HAL_Driver/Src/stm32f4xx_hal_rtc_ex.c ****   __HAL_RTC_TIMESTAMP_CLEAR_FLAG(hrtc, RTC_FLAG_TSF);
 248              		.loc 1 288 3 is_stmt 1 discriminator 2 view .LVU88
 249 0040 1968     		ldr	r1, [r3]
 250 0042 CA68     		ldr	r2, [r1, #12]
 251              	.LVL16:
 252              		.loc 1 288 3 is_stmt 0 discriminator 2 view .LVU89
 253 0044 D2B2     		uxtb	r2, r2
 254 0046 62F40862 		orn	r2, r2, #2176
 255 004a CA60     		str	r2, [r1, #12]
 289:./STM32F4xx_HAL_Driver/Src/stm32f4xx_hal_rtc_ex.c **** 
 290:./STM32F4xx_HAL_Driver/Src/stm32f4xx_hal_rtc_ex.c ****   /* Clear RTC Timestamp overrun Flag */
 291:./STM32F4xx_HAL_Driver/Src/stm32f4xx_hal_rtc_ex.c ****   __HAL_RTC_TIMESTAMP_CLEAR_FLAG(hrtc, RTC_FLAG_TSOVF);
 256              		.loc 1 291 3 is_stmt 1 discriminator 2 view .LVU90
 257 004c 1968     		ldr	r1, [r3]
 258 004e CA68     		ldr	r2, [r1, #12]
 259 0050 D2B2     		uxtb	r2, r2
 260 0052 62F48452 		orn	r2, r2, #4224
 261 0056 CA60     		str	r2, [r1, #12]
 292:./STM32F4xx_HAL_Driver/Src/stm32f4xx_hal_rtc_ex.c **** 
 293:./STM32F4xx_HAL_Driver/Src/stm32f4xx_hal_rtc_ex.c ****   /* Enable the Timestamp saving */
 294:./STM32F4xx_HAL_Driver/Src/stm32f4xx_hal_rtc_ex.c ****   __HAL_RTC_TIMESTAMP_ENABLE(hrtc);
 262              		.loc 1 294 3 discriminator 2 view .LVU91
 263 0058 1968     		ldr	r1, [r3]
 264 005a 8A68     		ldr	r2, [r1, #8]
 265 005c 42F40062 		orr	r2, r2, #2048
 266 0060 8A60     		str	r2, [r1, #8]
 295:./STM32F4xx_HAL_Driver/Src/stm32f4xx_hal_rtc_ex.c **** 
 296:./STM32F4xx_HAL_Driver/Src/stm32f4xx_hal_rtc_ex.c ****   /* Enable IT Timestamp */
 297:./STM32F4xx_HAL_Driver/Src/stm32f4xx_hal_rtc_ex.c ****   __HAL_RTC_TIMESTAMP_ENABLE_IT(hrtc, RTC_IT_TS);
 267              		.loc 1 297 3 discriminator 2 view .LVU92
 268 0062 1968     		ldr	r1, [r3]
 269 0064 8A68     		ldr	r2, [r1, #8]
 270 0066 42F40042 		orr	r2, r2, #32768
 271 006a 8A60     		str	r2, [r1, #8]
 298:./STM32F4xx_HAL_Driver/Src/stm32f4xx_hal_rtc_ex.c **** 
 299:./STM32F4xx_HAL_Driver/Src/stm32f4xx_hal_rtc_ex.c ****   /* Enable the write protection for RTC registers */
ARM GAS  /tmp/cc9ZOIPt.s 			page 11


 300:./STM32F4xx_HAL_Driver/Src/stm32f4xx_hal_rtc_ex.c ****   __HAL_RTC_WRITEPROTECTION_ENABLE(hrtc);
 272              		.loc 1 300 3 discriminator 2 view .LVU93
 273              		.loc 1 300 3 discriminator 2 view .LVU94
 274 006c 1A68     		ldr	r2, [r3]
 275 006e FF21     		movs	r1, #255
 276 0070 5162     		str	r1, [r2, #36]
 277              		.loc 1 300 3 discriminator 2 view .LVU95
 301:./STM32F4xx_HAL_Driver/Src/stm32f4xx_hal_rtc_ex.c **** 
 302:./STM32F4xx_HAL_Driver/Src/stm32f4xx_hal_rtc_ex.c ****   /* RTC Timestamp Interrupt Configuration: EXTI configuration */
 303:./STM32F4xx_HAL_Driver/Src/stm32f4xx_hal_rtc_ex.c ****   __HAL_RTC_TAMPER_TIMESTAMP_EXTI_ENABLE_IT();
 278              		.loc 1 303 3 discriminator 2 view .LVU96
 279 0072 084A     		ldr	r2, .L15
 280 0074 1168     		ldr	r1, [r2]
 281 0076 41F40011 		orr	r1, r1, #2097152
 282 007a 1160     		str	r1, [r2]
 304:./STM32F4xx_HAL_Driver/Src/stm32f4xx_hal_rtc_ex.c ****   __HAL_RTC_TAMPER_TIMESTAMP_EXTI_ENABLE_RISING_EDGE();
 283              		.loc 1 304 3 discriminator 2 view .LVU97
 284 007c 9168     		ldr	r1, [r2, #8]
 285 007e 41F40011 		orr	r1, r1, #2097152
 286 0082 9160     		str	r1, [r2, #8]
 305:./STM32F4xx_HAL_Driver/Src/stm32f4xx_hal_rtc_ex.c **** 
 306:./STM32F4xx_HAL_Driver/Src/stm32f4xx_hal_rtc_ex.c ****   /* Change RTC state back to READY */
 307:./STM32F4xx_HAL_Driver/Src/stm32f4xx_hal_rtc_ex.c ****   hrtc->State = HAL_RTC_STATE_READY;
 287              		.loc 1 307 3 discriminator 2 view .LVU98
 288              		.loc 1 307 15 is_stmt 0 discriminator 2 view .LVU99
 289 0084 5877     		strb	r0, [r3, #29]
 308:./STM32F4xx_HAL_Driver/Src/stm32f4xx_hal_rtc_ex.c **** 
 309:./STM32F4xx_HAL_Driver/Src/stm32f4xx_hal_rtc_ex.c ****   /* Process Unlocked */
 310:./STM32F4xx_HAL_Driver/Src/stm32f4xx_hal_rtc_ex.c ****   __HAL_UNLOCK(hrtc);
 290              		.loc 1 310 3 is_stmt 1 discriminator 2 view .LVU100
 291              		.loc 1 310 3 discriminator 2 view .LVU101
 292 0086 0020     		movs	r0, #0
 293 0088 1877     		strb	r0, [r3, #28]
 294              		.loc 1 310 3 discriminator 2 view .LVU102
 311:./STM32F4xx_HAL_Driver/Src/stm32f4xx_hal_rtc_ex.c **** 
 312:./STM32F4xx_HAL_Driver/Src/stm32f4xx_hal_rtc_ex.c ****   return HAL_OK;
 295              		.loc 1 312 3 discriminator 2 view .LVU103
 313:./STM32F4xx_HAL_Driver/Src/stm32f4xx_hal_rtc_ex.c **** }
 296              		.loc 1 313 1 is_stmt 0 discriminator 2 view .LVU104
 297 008a 30BC     		pop	{r4, r5}
 298              	.LCFI3:
 299              		.cfi_restore 5
 300              		.cfi_restore 4
 301              		.cfi_def_cfa_offset 0
 302 008c 7047     		bx	lr
 303              	.LVL17:
 304              	.L10:
 267:./STM32F4xx_HAL_Driver/Src/stm32f4xx_hal_rtc_ex.c **** 
 305              		.loc 1 267 3 view .LVU105
 306 008e 0220     		movs	r0, #2
 307              		.loc 1 313 1 view .LVU106
 308 0090 7047     		bx	lr
 309              	.L16:
 310 0092 00BF     		.align	2
 311              	.L15:
 312 0094 003C0140 		.word	1073822720
 313              		.cfi_endproc
ARM GAS  /tmp/cc9ZOIPt.s 			page 12


 314              	.LFE217:
 316              		.section	.text.HAL_RTCEx_DeactivateTimeStamp,"ax",%progbits
 317              		.align	1
 318              		.global	HAL_RTCEx_DeactivateTimeStamp
 319              		.syntax unified
 320              		.thumb
 321              		.thumb_func
 323              	HAL_RTCEx_DeactivateTimeStamp:
 324              	.LVL18:
 325              	.LFB218:
 314:./STM32F4xx_HAL_Driver/Src/stm32f4xx_hal_rtc_ex.c **** 
 315:./STM32F4xx_HAL_Driver/Src/stm32f4xx_hal_rtc_ex.c **** /**
 316:./STM32F4xx_HAL_Driver/Src/stm32f4xx_hal_rtc_ex.c ****   * @brief  Deactivates Timestamp.
 317:./STM32F4xx_HAL_Driver/Src/stm32f4xx_hal_rtc_ex.c ****   * @param  hrtc pointer to a RTC_HandleTypeDef structure that contains
 318:./STM32F4xx_HAL_Driver/Src/stm32f4xx_hal_rtc_ex.c ****   *                the configuration information for RTC.
 319:./STM32F4xx_HAL_Driver/Src/stm32f4xx_hal_rtc_ex.c ****   * @retval HAL status
 320:./STM32F4xx_HAL_Driver/Src/stm32f4xx_hal_rtc_ex.c ****   */
 321:./STM32F4xx_HAL_Driver/Src/stm32f4xx_hal_rtc_ex.c **** HAL_StatusTypeDef HAL_RTCEx_DeactivateTimeStamp(RTC_HandleTypeDef *hrtc)
 322:./STM32F4xx_HAL_Driver/Src/stm32f4xx_hal_rtc_ex.c **** {
 326              		.loc 1 322 1 is_stmt 1 view -0
 327              		.cfi_startproc
 328              		@ args = 0, pretend = 0, frame = 0
 329              		@ frame_needed = 0, uses_anonymous_args = 0
 330              		@ link register save eliminated.
 331              		.loc 1 322 1 is_stmt 0 view .LVU108
 332 0000 0346     		mov	r3, r0
 323:./STM32F4xx_HAL_Driver/Src/stm32f4xx_hal_rtc_ex.c ****   uint32_t tmpreg = 0U;
 333              		.loc 1 323 3 is_stmt 1 view .LVU109
 334              	.LVL19:
 324:./STM32F4xx_HAL_Driver/Src/stm32f4xx_hal_rtc_ex.c **** 
 325:./STM32F4xx_HAL_Driver/Src/stm32f4xx_hal_rtc_ex.c ****   /* Process Locked */
 326:./STM32F4xx_HAL_Driver/Src/stm32f4xx_hal_rtc_ex.c ****   __HAL_LOCK(hrtc);
 335              		.loc 1 326 3 view .LVU110
 336              		.loc 1 326 3 view .LVU111
 337 0002 027F     		ldrb	r2, [r0, #28]	@ zero_extendqisi2
 338 0004 012A     		cmp	r2, #1
 339 0006 1CD0     		beq	.L19
 340              		.loc 1 326 3 discriminator 2 view .LVU112
 341 0008 0121     		movs	r1, #1
 342 000a 0177     		strb	r1, [r0, #28]
 343              		.loc 1 326 3 discriminator 2 view .LVU113
 327:./STM32F4xx_HAL_Driver/Src/stm32f4xx_hal_rtc_ex.c **** 
 328:./STM32F4xx_HAL_Driver/Src/stm32f4xx_hal_rtc_ex.c ****   hrtc->State = HAL_RTC_STATE_BUSY;
 344              		.loc 1 328 3 discriminator 2 view .LVU114
 345              		.loc 1 328 15 is_stmt 0 discriminator 2 view .LVU115
 346 000c 0222     		movs	r2, #2
 347 000e 4277     		strb	r2, [r0, #29]
 329:./STM32F4xx_HAL_Driver/Src/stm32f4xx_hal_rtc_ex.c **** 
 330:./STM32F4xx_HAL_Driver/Src/stm32f4xx_hal_rtc_ex.c ****   /* Disable the write protection for RTC registers */
 331:./STM32F4xx_HAL_Driver/Src/stm32f4xx_hal_rtc_ex.c ****   __HAL_RTC_WRITEPROTECTION_DISABLE(hrtc);
 348              		.loc 1 331 3 is_stmt 1 discriminator 2 view .LVU116
 349              		.loc 1 331 3 discriminator 2 view .LVU117
 350 0010 0268     		ldr	r2, [r0]
 351 0012 CA20     		movs	r0, #202
 352              	.LVL20:
 353              		.loc 1 331 3 is_stmt 0 discriminator 2 view .LVU118
 354 0014 5062     		str	r0, [r2, #36]
ARM GAS  /tmp/cc9ZOIPt.s 			page 13


 355              		.loc 1 331 3 is_stmt 1 discriminator 2 view .LVU119
 356 0016 1A68     		ldr	r2, [r3]
 357 0018 5320     		movs	r0, #83
 358 001a 5062     		str	r0, [r2, #36]
 359              		.loc 1 331 3 discriminator 2 view .LVU120
 332:./STM32F4xx_HAL_Driver/Src/stm32f4xx_hal_rtc_ex.c **** 
 333:./STM32F4xx_HAL_Driver/Src/stm32f4xx_hal_rtc_ex.c ****   /* In case of interrupt mode is used, the interrupt source must disabled */
 334:./STM32F4xx_HAL_Driver/Src/stm32f4xx_hal_rtc_ex.c ****   __HAL_RTC_TIMESTAMP_DISABLE_IT(hrtc, RTC_IT_TS);
 360              		.loc 1 334 3 discriminator 2 view .LVU121
 361 001c 1868     		ldr	r0, [r3]
 362 001e 8268     		ldr	r2, [r0, #8]
 363 0020 22F40042 		bic	r2, r2, #32768
 364 0024 8260     		str	r2, [r0, #8]
 335:./STM32F4xx_HAL_Driver/Src/stm32f4xx_hal_rtc_ex.c **** 
 336:./STM32F4xx_HAL_Driver/Src/stm32f4xx_hal_rtc_ex.c ****   /* Get the RTC_CR register and clear the bits to be configured */
 337:./STM32F4xx_HAL_Driver/Src/stm32f4xx_hal_rtc_ex.c ****   tmpreg = (uint32_t)(hrtc->Instance->CR & (uint32_t)~(RTC_CR_TSEDGE | RTC_CR_TSE));
 365              		.loc 1 337 3 discriminator 2 view .LVU122
 366              		.loc 1 337 27 is_stmt 0 discriminator 2 view .LVU123
 367 0026 1868     		ldr	r0, [r3]
 368              		.loc 1 337 37 discriminator 2 view .LVU124
 369 0028 8268     		ldr	r2, [r0, #8]
 370              		.loc 1 337 10 discriminator 2 view .LVU125
 371 002a 22F40062 		bic	r2, r2, #2048
 372 002e 22F00802 		bic	r2, r2, #8
 373              	.LVL21:
 338:./STM32F4xx_HAL_Driver/Src/stm32f4xx_hal_rtc_ex.c **** 
 339:./STM32F4xx_HAL_Driver/Src/stm32f4xx_hal_rtc_ex.c ****   /* Configure the Timestamp TSEDGE and Enable bits */
 340:./STM32F4xx_HAL_Driver/Src/stm32f4xx_hal_rtc_ex.c ****   hrtc->Instance->CR = (uint32_t)tmpreg;
 374              		.loc 1 340 3 is_stmt 1 discriminator 2 view .LVU126
 375              		.loc 1 340 22 is_stmt 0 discriminator 2 view .LVU127
 376 0032 8260     		str	r2, [r0, #8]
 341:./STM32F4xx_HAL_Driver/Src/stm32f4xx_hal_rtc_ex.c **** 
 342:./STM32F4xx_HAL_Driver/Src/stm32f4xx_hal_rtc_ex.c ****   /* Enable the write protection for RTC registers */
 343:./STM32F4xx_HAL_Driver/Src/stm32f4xx_hal_rtc_ex.c ****   __HAL_RTC_WRITEPROTECTION_ENABLE(hrtc);
 377              		.loc 1 343 3 is_stmt 1 discriminator 2 view .LVU128
 378              		.loc 1 343 3 discriminator 2 view .LVU129
 379 0034 1A68     		ldr	r2, [r3]
 380              	.LVL22:
 381              		.loc 1 343 3 is_stmt 0 discriminator 2 view .LVU130
 382 0036 FF20     		movs	r0, #255
 383              	.LVL23:
 384              		.loc 1 343 3 discriminator 2 view .LVU131
 385 0038 5062     		str	r0, [r2, #36]
 386              		.loc 1 343 3 is_stmt 1 discriminator 2 view .LVU132
 344:./STM32F4xx_HAL_Driver/Src/stm32f4xx_hal_rtc_ex.c **** 
 345:./STM32F4xx_HAL_Driver/Src/stm32f4xx_hal_rtc_ex.c ****   hrtc->State = HAL_RTC_STATE_READY;
 387              		.loc 1 345 3 discriminator 2 view .LVU133
 388              		.loc 1 345 15 is_stmt 0 discriminator 2 view .LVU134
 389 003a 5977     		strb	r1, [r3, #29]
 346:./STM32F4xx_HAL_Driver/Src/stm32f4xx_hal_rtc_ex.c **** 
 347:./STM32F4xx_HAL_Driver/Src/stm32f4xx_hal_rtc_ex.c ****   /* Process Unlocked */
 348:./STM32F4xx_HAL_Driver/Src/stm32f4xx_hal_rtc_ex.c ****   __HAL_UNLOCK(hrtc);
 390              		.loc 1 348 3 is_stmt 1 discriminator 2 view .LVU135
 391              		.loc 1 348 3 discriminator 2 view .LVU136
 392 003c 0020     		movs	r0, #0
 393 003e 1877     		strb	r0, [r3, #28]
 394              		.loc 1 348 3 discriminator 2 view .LVU137
ARM GAS  /tmp/cc9ZOIPt.s 			page 14


 349:./STM32F4xx_HAL_Driver/Src/stm32f4xx_hal_rtc_ex.c **** 
 350:./STM32F4xx_HAL_Driver/Src/stm32f4xx_hal_rtc_ex.c ****   return HAL_OK;
 395              		.loc 1 350 3 discriminator 2 view .LVU138
 396              		.loc 1 350 10 is_stmt 0 discriminator 2 view .LVU139
 397 0040 7047     		bx	lr
 398              	.LVL24:
 399              	.L19:
 326:./STM32F4xx_HAL_Driver/Src/stm32f4xx_hal_rtc_ex.c **** 
 400              		.loc 1 326 3 view .LVU140
 401 0042 0220     		movs	r0, #2
 402              	.LVL25:
 351:./STM32F4xx_HAL_Driver/Src/stm32f4xx_hal_rtc_ex.c **** }
 403              		.loc 1 351 1 view .LVU141
 404 0044 7047     		bx	lr
 405              		.cfi_endproc
 406              	.LFE218:
 408              		.section	.text.HAL_RTCEx_GetTimeStamp,"ax",%progbits
 409              		.align	1
 410              		.global	HAL_RTCEx_GetTimeStamp
 411              		.syntax unified
 412              		.thumb
 413              		.thumb_func
 415              	HAL_RTCEx_GetTimeStamp:
 416              	.LVL26:
 417              	.LFB219:
 352:./STM32F4xx_HAL_Driver/Src/stm32f4xx_hal_rtc_ex.c **** 
 353:./STM32F4xx_HAL_Driver/Src/stm32f4xx_hal_rtc_ex.c **** /**
 354:./STM32F4xx_HAL_Driver/Src/stm32f4xx_hal_rtc_ex.c ****   * @brief  Gets the RTC Timestamp value.
 355:./STM32F4xx_HAL_Driver/Src/stm32f4xx_hal_rtc_ex.c ****   * @param  hrtc pointer to a RTC_HandleTypeDef structure that contains
 356:./STM32F4xx_HAL_Driver/Src/stm32f4xx_hal_rtc_ex.c ****   *                the configuration information for RTC.
 357:./STM32F4xx_HAL_Driver/Src/stm32f4xx_hal_rtc_ex.c ****   * @param  sTimeStamp Pointer to Time structure
 358:./STM32F4xx_HAL_Driver/Src/stm32f4xx_hal_rtc_ex.c ****   * @param  sTimeStampDate Pointer to Date structure
 359:./STM32F4xx_HAL_Driver/Src/stm32f4xx_hal_rtc_ex.c ****   * @param  Format specifies the format of the entered parameters.
 360:./STM32F4xx_HAL_Driver/Src/stm32f4xx_hal_rtc_ex.c ****   *          This parameter can be one of the following values:
 361:./STM32F4xx_HAL_Driver/Src/stm32f4xx_hal_rtc_ex.c ****   *             @arg RTC_FORMAT_BIN: Binary data format
 362:./STM32F4xx_HAL_Driver/Src/stm32f4xx_hal_rtc_ex.c ****   *             @arg RTC_FORMAT_BCD: BCD data format
 363:./STM32F4xx_HAL_Driver/Src/stm32f4xx_hal_rtc_ex.c ****   * @retval HAL status
 364:./STM32F4xx_HAL_Driver/Src/stm32f4xx_hal_rtc_ex.c ****   */
 365:./STM32F4xx_HAL_Driver/Src/stm32f4xx_hal_rtc_ex.c **** HAL_StatusTypeDef HAL_RTCEx_GetTimeStamp(RTC_HandleTypeDef *hrtc, RTC_TimeTypeDef *sTimeStamp, RTC_
 366:./STM32F4xx_HAL_Driver/Src/stm32f4xx_hal_rtc_ex.c **** {
 418              		.loc 1 366 1 is_stmt 1 view -0
 419              		.cfi_startproc
 420              		@ args = 0, pretend = 0, frame = 0
 421              		@ frame_needed = 0, uses_anonymous_args = 0
 422              		.loc 1 366 1 is_stmt 0 view .LVU143
 423 0000 70B5     		push	{r4, r5, r6, lr}
 424              	.LCFI4:
 425              		.cfi_def_cfa_offset 16
 426              		.cfi_offset 4, -16
 427              		.cfi_offset 5, -12
 428              		.cfi_offset 6, -8
 429              		.cfi_offset 14, -4
 430 0002 0646     		mov	r6, r0
 431 0004 0C46     		mov	r4, r1
 432 0006 1546     		mov	r5, r2
 367:./STM32F4xx_HAL_Driver/Src/stm32f4xx_hal_rtc_ex.c ****   uint32_t tmptime = 0U;
 433              		.loc 1 367 3 is_stmt 1 view .LVU144
ARM GAS  /tmp/cc9ZOIPt.s 			page 15


 434              	.LVL27:
 368:./STM32F4xx_HAL_Driver/Src/stm32f4xx_hal_rtc_ex.c ****   uint32_t tmpdate = 0U;
 435              		.loc 1 368 3 view .LVU145
 369:./STM32F4xx_HAL_Driver/Src/stm32f4xx_hal_rtc_ex.c **** 
 370:./STM32F4xx_HAL_Driver/Src/stm32f4xx_hal_rtc_ex.c ****   /* Check the parameters */
 371:./STM32F4xx_HAL_Driver/Src/stm32f4xx_hal_rtc_ex.c ****   assert_param(IS_RTC_FORMAT(Format));
 436              		.loc 1 371 3 view .LVU146
 372:./STM32F4xx_HAL_Driver/Src/stm32f4xx_hal_rtc_ex.c **** 
 373:./STM32F4xx_HAL_Driver/Src/stm32f4xx_hal_rtc_ex.c ****   /* Get the Timestamp time and date registers values */
 374:./STM32F4xx_HAL_Driver/Src/stm32f4xx_hal_rtc_ex.c ****   tmptime = (uint32_t)(hrtc->Instance->TSTR & RTC_TR_RESERVED_MASK);
 437              		.loc 1 374 3 view .LVU147
 438              		.loc 1 374 28 is_stmt 0 view .LVU148
 439 0008 0168     		ldr	r1, [r0]
 440              	.LVL28:
 441              		.loc 1 374 38 view .LVU149
 442 000a 0A6B     		ldr	r2, [r1, #48]
 443              	.LVL29:
 375:./STM32F4xx_HAL_Driver/Src/stm32f4xx_hal_rtc_ex.c ****   tmpdate = (uint32_t)(hrtc->Instance->TSDR & RTC_DR_RESERVED_MASK);
 444              		.loc 1 375 3 is_stmt 1 view .LVU150
 445              		.loc 1 375 38 is_stmt 0 view .LVU151
 446 000c 496B     		ldr	r1, [r1, #52]
 447              	.LVL30:
 376:./STM32F4xx_HAL_Driver/Src/stm32f4xx_hal_rtc_ex.c **** 
 377:./STM32F4xx_HAL_Driver/Src/stm32f4xx_hal_rtc_ex.c ****   /* Fill the Time structure fields with the read parameters */
 378:./STM32F4xx_HAL_Driver/Src/stm32f4xx_hal_rtc_ex.c ****   sTimeStamp->Hours      = (uint8_t)((tmptime & (RTC_TSTR_HT  | RTC_TSTR_HU))  >> RTC_TSTR_HU_Pos);
 448              		.loc 1 378 3 is_stmt 1 view .LVU152
 449              		.loc 1 378 28 is_stmt 0 view .LVU153
 450 000e C2F30540 		ubfx	r0, r2, #16, #6
 451              	.LVL31:
 452              		.loc 1 378 26 view .LVU154
 453 0012 2070     		strb	r0, [r4]
 379:./STM32F4xx_HAL_Driver/Src/stm32f4xx_hal_rtc_ex.c ****   sTimeStamp->Minutes    = (uint8_t)((tmptime & (RTC_TSTR_MNT | RTC_TSTR_MNU)) >> RTC_TSTR_MNU_Pos)
 454              		.loc 1 379 3 is_stmt 1 view .LVU155
 455              		.loc 1 379 28 is_stmt 0 view .LVU156
 456 0014 C2F30620 		ubfx	r0, r2, #8, #7
 457              		.loc 1 379 26 view .LVU157
 458 0018 6070     		strb	r0, [r4, #1]
 380:./STM32F4xx_HAL_Driver/Src/stm32f4xx_hal_rtc_ex.c ****   sTimeStamp->Seconds    = (uint8_t)((tmptime & (RTC_TSTR_ST  | RTC_TSTR_SU))  >> RTC_TSTR_SU_Pos);
 459              		.loc 1 380 3 is_stmt 1 view .LVU158
 460              		.loc 1 380 28 is_stmt 0 view .LVU159
 461 001a 02F07F00 		and	r0, r2, #127
 462              		.loc 1 380 26 view .LVU160
 463 001e A070     		strb	r0, [r4, #2]
 381:./STM32F4xx_HAL_Driver/Src/stm32f4xx_hal_rtc_ex.c ****   sTimeStamp->TimeFormat = (uint8_t)((tmptime & (RTC_TSTR_PM))                 >> RTC_TSTR_PM_Pos);
 464              		.loc 1 381 3 is_stmt 1 view .LVU161
 465              		.loc 1 381 28 is_stmt 0 view .LVU162
 466 0020 C2F38052 		ubfx	r2, r2, #22, #1
 467              	.LVL32:
 468              		.loc 1 381 26 view .LVU163
 469 0024 E270     		strb	r2, [r4, #3]
 382:./STM32F4xx_HAL_Driver/Src/stm32f4xx_hal_rtc_ex.c ****   sTimeStamp->SubSeconds = (uint32_t) hrtc->Instance->TSSSR;
 470              		.loc 1 382 3 is_stmt 1 view .LVU164
 471              		.loc 1 382 43 is_stmt 0 view .LVU165
 472 0026 3268     		ldr	r2, [r6]
 473              		.loc 1 382 53 view .LVU166
 474 0028 926B     		ldr	r2, [r2, #56]
 475              		.loc 1 382 26 view .LVU167
ARM GAS  /tmp/cc9ZOIPt.s 			page 16


 476 002a 6260     		str	r2, [r4, #4]
 383:./STM32F4xx_HAL_Driver/Src/stm32f4xx_hal_rtc_ex.c **** 
 384:./STM32F4xx_HAL_Driver/Src/stm32f4xx_hal_rtc_ex.c ****   /* Fill the Date structure fields with the read parameters */
 385:./STM32F4xx_HAL_Driver/Src/stm32f4xx_hal_rtc_ex.c ****   sTimeStampDate->Year    = 0U;
 477              		.loc 1 385 3 is_stmt 1 view .LVU168
 478              		.loc 1 385 27 is_stmt 0 view .LVU169
 479 002c 0022     		movs	r2, #0
 480 002e EA70     		strb	r2, [r5, #3]
 386:./STM32F4xx_HAL_Driver/Src/stm32f4xx_hal_rtc_ex.c ****   sTimeStampDate->Month   = (uint8_t)((tmpdate & (RTC_TSDR_MT | RTC_TSDR_MU)) >> RTC_TSDR_MU_Pos);
 481              		.loc 1 386 3 is_stmt 1 view .LVU170
 482              		.loc 1 386 29 is_stmt 0 view .LVU171
 483 0030 C1F30422 		ubfx	r2, r1, #8, #5
 484              		.loc 1 386 27 view .LVU172
 485 0034 6A70     		strb	r2, [r5, #1]
 387:./STM32F4xx_HAL_Driver/Src/stm32f4xx_hal_rtc_ex.c ****   sTimeStampDate->Date    = (uint8_t)((tmpdate & (RTC_TSDR_DT | RTC_TSDR_DU)) >> RTC_TSDR_DU_Pos);
 486              		.loc 1 387 3 is_stmt 1 view .LVU173
 487              		.loc 1 387 29 is_stmt 0 view .LVU174
 488 0036 01F03F02 		and	r2, r1, #63
 489              		.loc 1 387 27 view .LVU175
 490 003a AA70     		strb	r2, [r5, #2]
 388:./STM32F4xx_HAL_Driver/Src/stm32f4xx_hal_rtc_ex.c ****   sTimeStampDate->WeekDay = (uint8_t)((tmpdate & (RTC_TSDR_WDU))              >> RTC_TSDR_WDU_Pos);
 491              		.loc 1 388 3 is_stmt 1 view .LVU176
 492              		.loc 1 388 29 is_stmt 0 view .LVU177
 493 003c C1F34231 		ubfx	r1, r1, #13, #3
 494              	.LVL33:
 495              		.loc 1 388 27 view .LVU178
 496 0040 2970     		strb	r1, [r5]
 389:./STM32F4xx_HAL_Driver/Src/stm32f4xx_hal_rtc_ex.c **** 
 390:./STM32F4xx_HAL_Driver/Src/stm32f4xx_hal_rtc_ex.c ****   /* Check the input parameters format */
 391:./STM32F4xx_HAL_Driver/Src/stm32f4xx_hal_rtc_ex.c ****   if (Format == RTC_FORMAT_BIN)
 497              		.loc 1 391 3 is_stmt 1 view .LVU179
 498              		.loc 1 391 6 is_stmt 0 view .LVU180
 499 0042 3BB1     		cbz	r3, .L23
 500              	.LVL34:
 501              	.L21:
 392:./STM32F4xx_HAL_Driver/Src/stm32f4xx_hal_rtc_ex.c ****   {
 393:./STM32F4xx_HAL_Driver/Src/stm32f4xx_hal_rtc_ex.c ****     /* Convert the Timestamp structure parameters to Binary format */
 394:./STM32F4xx_HAL_Driver/Src/stm32f4xx_hal_rtc_ex.c ****     sTimeStamp->Hours   = (uint8_t)RTC_Bcd2ToByte(sTimeStamp->Hours);
 395:./STM32F4xx_HAL_Driver/Src/stm32f4xx_hal_rtc_ex.c ****     sTimeStamp->Minutes = (uint8_t)RTC_Bcd2ToByte(sTimeStamp->Minutes);
 396:./STM32F4xx_HAL_Driver/Src/stm32f4xx_hal_rtc_ex.c ****     sTimeStamp->Seconds = (uint8_t)RTC_Bcd2ToByte(sTimeStamp->Seconds);
 397:./STM32F4xx_HAL_Driver/Src/stm32f4xx_hal_rtc_ex.c **** 
 398:./STM32F4xx_HAL_Driver/Src/stm32f4xx_hal_rtc_ex.c ****     /* Convert the DateTimeStamp structure parameters to Binary format */
 399:./STM32F4xx_HAL_Driver/Src/stm32f4xx_hal_rtc_ex.c ****     sTimeStampDate->Month   = (uint8_t)RTC_Bcd2ToByte(sTimeStampDate->Month);
 400:./STM32F4xx_HAL_Driver/Src/stm32f4xx_hal_rtc_ex.c ****     sTimeStampDate->Date    = (uint8_t)RTC_Bcd2ToByte(sTimeStampDate->Date);
 401:./STM32F4xx_HAL_Driver/Src/stm32f4xx_hal_rtc_ex.c ****     sTimeStampDate->WeekDay = (uint8_t)RTC_Bcd2ToByte(sTimeStampDate->WeekDay);
 402:./STM32F4xx_HAL_Driver/Src/stm32f4xx_hal_rtc_ex.c ****   }
 403:./STM32F4xx_HAL_Driver/Src/stm32f4xx_hal_rtc_ex.c **** 
 404:./STM32F4xx_HAL_Driver/Src/stm32f4xx_hal_rtc_ex.c ****   /* Clear the Timestamp Flag */
 405:./STM32F4xx_HAL_Driver/Src/stm32f4xx_hal_rtc_ex.c ****   __HAL_RTC_TIMESTAMP_CLEAR_FLAG(hrtc, RTC_FLAG_TSF);
 502              		.loc 1 405 3 is_stmt 1 view .LVU181
 503 0044 3268     		ldr	r2, [r6]
 504 0046 D368     		ldr	r3, [r2, #12]
 505 0048 DBB2     		uxtb	r3, r3
 506 004a 63F40863 		orn	r3, r3, #2176
 507 004e D360     		str	r3, [r2, #12]
 406:./STM32F4xx_HAL_Driver/Src/stm32f4xx_hal_rtc_ex.c **** 
 407:./STM32F4xx_HAL_Driver/Src/stm32f4xx_hal_rtc_ex.c ****   return HAL_OK;
ARM GAS  /tmp/cc9ZOIPt.s 			page 17


 508              		.loc 1 407 3 view .LVU182
 408:./STM32F4xx_HAL_Driver/Src/stm32f4xx_hal_rtc_ex.c **** }
 509              		.loc 1 408 1 is_stmt 0 view .LVU183
 510 0050 0020     		movs	r0, #0
 511 0052 70BD     		pop	{r4, r5, r6, pc}
 512              	.LVL35:
 513              	.L23:
 394:./STM32F4xx_HAL_Driver/Src/stm32f4xx_hal_rtc_ex.c ****     sTimeStamp->Minutes = (uint8_t)RTC_Bcd2ToByte(sTimeStamp->Minutes);
 514              		.loc 1 394 5 is_stmt 1 view .LVU184
 394:./STM32F4xx_HAL_Driver/Src/stm32f4xx_hal_rtc_ex.c ****     sTimeStamp->Minutes = (uint8_t)RTC_Bcd2ToByte(sTimeStamp->Minutes);
 515              		.loc 1 394 36 is_stmt 0 view .LVU185
 516 0054 2078     		ldrb	r0, [r4]	@ zero_extendqisi2
 517 0056 FFF7FEFF 		bl	RTC_Bcd2ToByte
 518              	.LVL36:
 394:./STM32F4xx_HAL_Driver/Src/stm32f4xx_hal_rtc_ex.c ****     sTimeStamp->Minutes = (uint8_t)RTC_Bcd2ToByte(sTimeStamp->Minutes);
 519              		.loc 1 394 25 view .LVU186
 520 005a 2070     		strb	r0, [r4]
 395:./STM32F4xx_HAL_Driver/Src/stm32f4xx_hal_rtc_ex.c ****     sTimeStamp->Seconds = (uint8_t)RTC_Bcd2ToByte(sTimeStamp->Seconds);
 521              		.loc 1 395 5 is_stmt 1 view .LVU187
 395:./STM32F4xx_HAL_Driver/Src/stm32f4xx_hal_rtc_ex.c ****     sTimeStamp->Seconds = (uint8_t)RTC_Bcd2ToByte(sTimeStamp->Seconds);
 522              		.loc 1 395 36 is_stmt 0 view .LVU188
 523 005c 6078     		ldrb	r0, [r4, #1]	@ zero_extendqisi2
 524 005e FFF7FEFF 		bl	RTC_Bcd2ToByte
 525              	.LVL37:
 395:./STM32F4xx_HAL_Driver/Src/stm32f4xx_hal_rtc_ex.c ****     sTimeStamp->Seconds = (uint8_t)RTC_Bcd2ToByte(sTimeStamp->Seconds);
 526              		.loc 1 395 25 view .LVU189
 527 0062 6070     		strb	r0, [r4, #1]
 396:./STM32F4xx_HAL_Driver/Src/stm32f4xx_hal_rtc_ex.c **** 
 528              		.loc 1 396 5 is_stmt 1 view .LVU190
 396:./STM32F4xx_HAL_Driver/Src/stm32f4xx_hal_rtc_ex.c **** 
 529              		.loc 1 396 36 is_stmt 0 view .LVU191
 530 0064 A078     		ldrb	r0, [r4, #2]	@ zero_extendqisi2
 531 0066 FFF7FEFF 		bl	RTC_Bcd2ToByte
 532              	.LVL38:
 396:./STM32F4xx_HAL_Driver/Src/stm32f4xx_hal_rtc_ex.c **** 
 533              		.loc 1 396 25 view .LVU192
 534 006a A070     		strb	r0, [r4, #2]
 399:./STM32F4xx_HAL_Driver/Src/stm32f4xx_hal_rtc_ex.c ****     sTimeStampDate->Date    = (uint8_t)RTC_Bcd2ToByte(sTimeStampDate->Date);
 535              		.loc 1 399 5 is_stmt 1 view .LVU193
 399:./STM32F4xx_HAL_Driver/Src/stm32f4xx_hal_rtc_ex.c ****     sTimeStampDate->Date    = (uint8_t)RTC_Bcd2ToByte(sTimeStampDate->Date);
 536              		.loc 1 399 40 is_stmt 0 view .LVU194
 537 006c 6878     		ldrb	r0, [r5, #1]	@ zero_extendqisi2
 538 006e FFF7FEFF 		bl	RTC_Bcd2ToByte
 539              	.LVL39:
 399:./STM32F4xx_HAL_Driver/Src/stm32f4xx_hal_rtc_ex.c ****     sTimeStampDate->Date    = (uint8_t)RTC_Bcd2ToByte(sTimeStampDate->Date);
 540              		.loc 1 399 29 view .LVU195
 541 0072 6870     		strb	r0, [r5, #1]
 400:./STM32F4xx_HAL_Driver/Src/stm32f4xx_hal_rtc_ex.c ****     sTimeStampDate->WeekDay = (uint8_t)RTC_Bcd2ToByte(sTimeStampDate->WeekDay);
 542              		.loc 1 400 5 is_stmt 1 view .LVU196
 400:./STM32F4xx_HAL_Driver/Src/stm32f4xx_hal_rtc_ex.c ****     sTimeStampDate->WeekDay = (uint8_t)RTC_Bcd2ToByte(sTimeStampDate->WeekDay);
 543              		.loc 1 400 40 is_stmt 0 view .LVU197
 544 0074 A878     		ldrb	r0, [r5, #2]	@ zero_extendqisi2
 545 0076 FFF7FEFF 		bl	RTC_Bcd2ToByte
 546              	.LVL40:
 400:./STM32F4xx_HAL_Driver/Src/stm32f4xx_hal_rtc_ex.c ****     sTimeStampDate->WeekDay = (uint8_t)RTC_Bcd2ToByte(sTimeStampDate->WeekDay);
 547              		.loc 1 400 29 view .LVU198
 548 007a A870     		strb	r0, [r5, #2]
ARM GAS  /tmp/cc9ZOIPt.s 			page 18


 401:./STM32F4xx_HAL_Driver/Src/stm32f4xx_hal_rtc_ex.c ****   }
 549              		.loc 1 401 5 is_stmt 1 view .LVU199
 401:./STM32F4xx_HAL_Driver/Src/stm32f4xx_hal_rtc_ex.c ****   }
 550              		.loc 1 401 40 is_stmt 0 view .LVU200
 551 007c 2878     		ldrb	r0, [r5]	@ zero_extendqisi2
 552 007e FFF7FEFF 		bl	RTC_Bcd2ToByte
 553              	.LVL41:
 401:./STM32F4xx_HAL_Driver/Src/stm32f4xx_hal_rtc_ex.c ****   }
 554              		.loc 1 401 29 view .LVU201
 555 0082 2870     		strb	r0, [r5]
 556 0084 DEE7     		b	.L21
 557              		.cfi_endproc
 558              	.LFE219:
 560              		.section	.text.HAL_RTCEx_SetTamper,"ax",%progbits
 561              		.align	1
 562              		.global	HAL_RTCEx_SetTamper
 563              		.syntax unified
 564              		.thumb
 565              		.thumb_func
 567              	HAL_RTCEx_SetTamper:
 568              	.LVL42:
 569              	.LFB220:
 409:./STM32F4xx_HAL_Driver/Src/stm32f4xx_hal_rtc_ex.c **** 
 410:./STM32F4xx_HAL_Driver/Src/stm32f4xx_hal_rtc_ex.c **** /**
 411:./STM32F4xx_HAL_Driver/Src/stm32f4xx_hal_rtc_ex.c ****   * @brief  Sets Tamper.
 412:./STM32F4xx_HAL_Driver/Src/stm32f4xx_hal_rtc_ex.c ****   * @note   By calling this API the tamper global interrupt will be disabled.
 413:./STM32F4xx_HAL_Driver/Src/stm32f4xx_hal_rtc_ex.c ****   * @param  hrtc pointer to a RTC_HandleTypeDef structure that contains
 414:./STM32F4xx_HAL_Driver/Src/stm32f4xx_hal_rtc_ex.c ****   *                the configuration information for RTC.
 415:./STM32F4xx_HAL_Driver/Src/stm32f4xx_hal_rtc_ex.c ****   * @param  sTamper Pointer to Tamper Structure.
 416:./STM32F4xx_HAL_Driver/Src/stm32f4xx_hal_rtc_ex.c ****   * @retval HAL status
 417:./STM32F4xx_HAL_Driver/Src/stm32f4xx_hal_rtc_ex.c ****   */
 418:./STM32F4xx_HAL_Driver/Src/stm32f4xx_hal_rtc_ex.c **** HAL_StatusTypeDef HAL_RTCEx_SetTamper(RTC_HandleTypeDef *hrtc, RTC_TamperTypeDef *sTamper)
 419:./STM32F4xx_HAL_Driver/Src/stm32f4xx_hal_rtc_ex.c **** {
 570              		.loc 1 419 1 is_stmt 1 view -0
 571              		.cfi_startproc
 572              		@ args = 0, pretend = 0, frame = 0
 573              		@ frame_needed = 0, uses_anonymous_args = 0
 574              		@ link register save eliminated.
 420:./STM32F4xx_HAL_Driver/Src/stm32f4xx_hal_rtc_ex.c ****   uint32_t tmpreg = 0U;
 575              		.loc 1 420 3 view .LVU203
 421:./STM32F4xx_HAL_Driver/Src/stm32f4xx_hal_rtc_ex.c **** 
 422:./STM32F4xx_HAL_Driver/Src/stm32f4xx_hal_rtc_ex.c ****   /* Check the parameters */
 423:./STM32F4xx_HAL_Driver/Src/stm32f4xx_hal_rtc_ex.c ****   assert_param(IS_RTC_TAMPER(sTamper->Tamper));
 576              		.loc 1 423 3 view .LVU204
 424:./STM32F4xx_HAL_Driver/Src/stm32f4xx_hal_rtc_ex.c ****   assert_param(IS_RTC_TAMPER_PIN(sTamper->PinSelection));
 577              		.loc 1 424 3 view .LVU205
 425:./STM32F4xx_HAL_Driver/Src/stm32f4xx_hal_rtc_ex.c ****   assert_param(IS_RTC_TAMPER_TRIGGER(sTamper->Trigger));
 578              		.loc 1 425 3 view .LVU206
 426:./STM32F4xx_HAL_Driver/Src/stm32f4xx_hal_rtc_ex.c ****   assert_param(IS_RTC_TAMPER_FILTER(sTamper->Filter));
 579              		.loc 1 426 3 view .LVU207
 427:./STM32F4xx_HAL_Driver/Src/stm32f4xx_hal_rtc_ex.c ****   assert_param(IS_RTC_TAMPER_FILTER_CONFIG_CORRECT(sTamper->Filter, sTamper->Trigger));
 580              		.loc 1 427 3 view .LVU208
 428:./STM32F4xx_HAL_Driver/Src/stm32f4xx_hal_rtc_ex.c ****   assert_param(IS_RTC_TAMPER_SAMPLING_FREQ(sTamper->SamplingFrequency));
 581              		.loc 1 428 3 view .LVU209
 429:./STM32F4xx_HAL_Driver/Src/stm32f4xx_hal_rtc_ex.c ****   assert_param(IS_RTC_TAMPER_PRECHARGE_DURATION(sTamper->PrechargeDuration));
 582              		.loc 1 429 3 view .LVU210
 430:./STM32F4xx_HAL_Driver/Src/stm32f4xx_hal_rtc_ex.c ****   assert_param(IS_RTC_TAMPER_PULLUP_STATE(sTamper->TamperPullUp));
ARM GAS  /tmp/cc9ZOIPt.s 			page 19


 583              		.loc 1 430 3 view .LVU211
 431:./STM32F4xx_HAL_Driver/Src/stm32f4xx_hal_rtc_ex.c ****   assert_param(IS_RTC_TAMPER_TIMESTAMPONTAMPER_DETECTION(sTamper->TimeStampOnTamperDetection));
 584              		.loc 1 431 3 view .LVU212
 432:./STM32F4xx_HAL_Driver/Src/stm32f4xx_hal_rtc_ex.c **** 
 433:./STM32F4xx_HAL_Driver/Src/stm32f4xx_hal_rtc_ex.c ****   /* Process Locked */
 434:./STM32F4xx_HAL_Driver/Src/stm32f4xx_hal_rtc_ex.c ****   __HAL_LOCK(hrtc);
 585              		.loc 1 434 3 view .LVU213
 586              		.loc 1 434 3 view .LVU214
 587 0000 037F     		ldrb	r3, [r0, #28]	@ zero_extendqisi2
 588 0002 012B     		cmp	r3, #1
 589 0004 2DD0     		beq	.L28
 419:./STM32F4xx_HAL_Driver/Src/stm32f4xx_hal_rtc_ex.c ****   uint32_t tmpreg = 0U;
 590              		.loc 1 419 1 is_stmt 0 discriminator 2 view .LVU215
 591 0006 10B4     		push	{r4}
 592              	.LCFI5:
 593              		.cfi_def_cfa_offset 4
 594              		.cfi_offset 4, -4
 595 0008 8446     		mov	ip, r0
 596              		.loc 1 434 3 is_stmt 1 discriminator 2 view .LVU216
 597 000a 0123     		movs	r3, #1
 598 000c 0377     		strb	r3, [r0, #28]
 599              		.loc 1 434 3 discriminator 2 view .LVU217
 435:./STM32F4xx_HAL_Driver/Src/stm32f4xx_hal_rtc_ex.c **** 
 436:./STM32F4xx_HAL_Driver/Src/stm32f4xx_hal_rtc_ex.c ****   hrtc->State = HAL_RTC_STATE_BUSY;
 600              		.loc 1 436 3 discriminator 2 view .LVU218
 601              		.loc 1 436 15 is_stmt 0 discriminator 2 view .LVU219
 602 000e 0223     		movs	r3, #2
 603 0010 4377     		strb	r3, [r0, #29]
 437:./STM32F4xx_HAL_Driver/Src/stm32f4xx_hal_rtc_ex.c **** 
 438:./STM32F4xx_HAL_Driver/Src/stm32f4xx_hal_rtc_ex.c ****   /* Copy control register into temporary variable */
 439:./STM32F4xx_HAL_Driver/Src/stm32f4xx_hal_rtc_ex.c ****   tmpreg = hrtc->Instance->TAFCR;
 604              		.loc 1 439 3 is_stmt 1 discriminator 2 view .LVU220
 605              		.loc 1 439 16 is_stmt 0 discriminator 2 view .LVU221
 606 0012 0068     		ldr	r0, [r0]
 607              	.LVL43:
 608              		.loc 1 439 10 discriminator 2 view .LVU222
 609 0014 026C     		ldr	r2, [r0, #64]
 610              	.LVL44:
 440:./STM32F4xx_HAL_Driver/Src/stm32f4xx_hal_rtc_ex.c **** 
 441:./STM32F4xx_HAL_Driver/Src/stm32f4xx_hal_rtc_ex.c ****   /* Enable selected tamper */
 442:./STM32F4xx_HAL_Driver/Src/stm32f4xx_hal_rtc_ex.c ****   tmpreg |= (sTamper->Tamper);
 611              		.loc 1 442 3 is_stmt 1 discriminator 2 view .LVU223
 612              		.loc 1 442 21 is_stmt 0 discriminator 2 view .LVU224
 613 0016 0B68     		ldr	r3, [r1]
 614              		.loc 1 442 10 discriminator 2 view .LVU225
 615 0018 1A43     		orrs	r2, r2, r3
 616              	.LVL45:
 443:./STM32F4xx_HAL_Driver/Src/stm32f4xx_hal_rtc_ex.c **** 
 444:./STM32F4xx_HAL_Driver/Src/stm32f4xx_hal_rtc_ex.c ****   /* Configure the tamper trigger bit (this bit is just on the right of the
 445:./STM32F4xx_HAL_Driver/Src/stm32f4xx_hal_rtc_ex.c ****        tamper enable bit, hence the one-time right shift before updating it) */
 446:./STM32F4xx_HAL_Driver/Src/stm32f4xx_hal_rtc_ex.c ****   if (sTamper->Trigger == RTC_TAMPERTRIGGER_FALLINGEDGE)
 617              		.loc 1 446 3 is_stmt 1 discriminator 2 view .LVU226
 618              		.loc 1 446 6 is_stmt 0 discriminator 2 view .LVU227
 619 001a 8C68     		ldr	r4, [r1, #8]
 620 001c 022C     		cmp	r4, #2
 621 001e 1DD0     		beq	.L33
 447:./STM32F4xx_HAL_Driver/Src/stm32f4xx_hal_rtc_ex.c ****   {
ARM GAS  /tmp/cc9ZOIPt.s 			page 20


 448:./STM32F4xx_HAL_Driver/Src/stm32f4xx_hal_rtc_ex.c ****     /* Set the tamper trigger bit (case of falling edge or high level) */
 449:./STM32F4xx_HAL_Driver/Src/stm32f4xx_hal_rtc_ex.c ****     tmpreg |= (uint32_t)(sTamper->Tamper << 1U);
 450:./STM32F4xx_HAL_Driver/Src/stm32f4xx_hal_rtc_ex.c ****   }
 451:./STM32F4xx_HAL_Driver/Src/stm32f4xx_hal_rtc_ex.c ****   else
 452:./STM32F4xx_HAL_Driver/Src/stm32f4xx_hal_rtc_ex.c ****   {
 453:./STM32F4xx_HAL_Driver/Src/stm32f4xx_hal_rtc_ex.c ****     /* Clear the tamper trigger bit (case of rising edge or low level) */
 454:./STM32F4xx_HAL_Driver/Src/stm32f4xx_hal_rtc_ex.c ****     tmpreg &= (uint32_t)~(sTamper->Tamper << 1U);
 622              		.loc 1 454 5 is_stmt 1 view .LVU228
 623              		.loc 1 454 12 is_stmt 0 view .LVU229
 624 0020 22EA4302 		bic	r2, r2, r3, lsl #1
 625              	.LVL46:
 626              	.L27:
 455:./STM32F4xx_HAL_Driver/Src/stm32f4xx_hal_rtc_ex.c ****   }
 456:./STM32F4xx_HAL_Driver/Src/stm32f4xx_hal_rtc_ex.c **** 
 457:./STM32F4xx_HAL_Driver/Src/stm32f4xx_hal_rtc_ex.c ****   /* Clear remaining fields before setting them */
 458:./STM32F4xx_HAL_Driver/Src/stm32f4xx_hal_rtc_ex.c ****   tmpreg &= ~(RTC_TAMPERFILTER_MASK              | \
 627              		.loc 1 458 3 is_stmt 1 view .LVU230
 628              		.loc 1 458 10 is_stmt 0 view .LVU231
 629 0024 22F4FF32 		bic	r2, r2, #130560
 630              	.LVL47:
 631              		.loc 1 458 10 view .LVU232
 632 0028 22F4C072 		bic	r2, r2, #384
 633              	.LVL48:
 459:./STM32F4xx_HAL_Driver/Src/stm32f4xx_hal_rtc_ex.c ****               RTC_TAMPERSAMPLINGFREQ_RTCCLK_MASK | \
 460:./STM32F4xx_HAL_Driver/Src/stm32f4xx_hal_rtc_ex.c ****               RTC_TAMPERPRECHARGEDURATION_MASK   | \
 461:./STM32F4xx_HAL_Driver/Src/stm32f4xx_hal_rtc_ex.c ****               RTC_TAMPER_PULLUP_MASK             | \
 462:./STM32F4xx_HAL_Driver/Src/stm32f4xx_hal_rtc_ex.c ****               RTC_TAFCR_TAMP1INSEL               | \
 463:./STM32F4xx_HAL_Driver/Src/stm32f4xx_hal_rtc_ex.c ****               RTC_TIMESTAMPONTAMPERDETECTION_MASK);
 464:./STM32F4xx_HAL_Driver/Src/stm32f4xx_hal_rtc_ex.c **** 
 465:./STM32F4xx_HAL_Driver/Src/stm32f4xx_hal_rtc_ex.c ****   /* Set remaining parameters of desired configuration into temporary variable */
 466:./STM32F4xx_HAL_Driver/Src/stm32f4xx_hal_rtc_ex.c ****   tmpreg |= ((uint32_t)sTamper->Filter            | \
 634              		.loc 1 466 3 is_stmt 1 view .LVU233
 635              		.loc 1 466 31 is_stmt 0 view .LVU234
 636 002c CB68     		ldr	r3, [r1, #12]
 637              		.loc 1 466 51 view .LVU235
 638 002e 0C69     		ldr	r4, [r1, #16]
 639 0030 2343     		orrs	r3, r3, r4
 467:./STM32F4xx_HAL_Driver/Src/stm32f4xx_hal_rtc_ex.c ****              (uint32_t)sTamper->SamplingFrequency | \
 640              		.loc 1 467 51 view .LVU236
 641 0032 4C69     		ldr	r4, [r1, #20]
 642 0034 2343     		orrs	r3, r3, r4
 468:./STM32F4xx_HAL_Driver/Src/stm32f4xx_hal_rtc_ex.c ****              (uint32_t)sTamper->PrechargeDuration | \
 643              		.loc 1 468 51 view .LVU237
 644 0036 8C69     		ldr	r4, [r1, #24]
 645 0038 2343     		orrs	r3, r3, r4
 469:./STM32F4xx_HAL_Driver/Src/stm32f4xx_hal_rtc_ex.c ****              (uint32_t)sTamper->TamperPullUp      | \
 646              		.loc 1 469 51 view .LVU238
 647 003a 4C68     		ldr	r4, [r1, #4]
 648 003c 2343     		orrs	r3, r3, r4
 470:./STM32F4xx_HAL_Driver/Src/stm32f4xx_hal_rtc_ex.c ****              (uint32_t)sTamper->PinSelection      | \
 471:./STM32F4xx_HAL_Driver/Src/stm32f4xx_hal_rtc_ex.c ****              (uint32_t)sTamper->TimeStampOnTamperDetection);
 649              		.loc 1 471 31 view .LVU239
 650 003e C969     		ldr	r1, [r1, #28]
 651              	.LVL49:
 470:./STM32F4xx_HAL_Driver/Src/stm32f4xx_hal_rtc_ex.c ****              (uint32_t)sTamper->PinSelection      | \
 652              		.loc 1 470 51 view .LVU240
 653 0040 0B43     		orrs	r3, r3, r1
ARM GAS  /tmp/cc9ZOIPt.s 			page 21


 466:./STM32F4xx_HAL_Driver/Src/stm32f4xx_hal_rtc_ex.c ****              (uint32_t)sTamper->SamplingFrequency | \
 654              		.loc 1 466 10 view .LVU241
 655 0042 1343     		orrs	r3, r3, r2
 656              	.LVL50:
 472:./STM32F4xx_HAL_Driver/Src/stm32f4xx_hal_rtc_ex.c **** 
 473:./STM32F4xx_HAL_Driver/Src/stm32f4xx_hal_rtc_ex.c ****   /* Disable tamper global interrupt in case it is enabled */
 474:./STM32F4xx_HAL_Driver/Src/stm32f4xx_hal_rtc_ex.c ****   tmpreg &= (uint32_t)~RTC_TAFCR_TAMPIE;
 657              		.loc 1 474 3 is_stmt 1 view .LVU242
 658              		.loc 1 474 10 is_stmt 0 view .LVU243
 659 0044 23F00403 		bic	r3, r3, #4
 660              	.LVL51:
 475:./STM32F4xx_HAL_Driver/Src/stm32f4xx_hal_rtc_ex.c **** 
 476:./STM32F4xx_HAL_Driver/Src/stm32f4xx_hal_rtc_ex.c ****   /* Copy desired configuration into configuration register */
 477:./STM32F4xx_HAL_Driver/Src/stm32f4xx_hal_rtc_ex.c ****   hrtc->Instance->TAFCR = tmpreg;
 661              		.loc 1 477 3 is_stmt 1 view .LVU244
 662              		.loc 1 477 25 is_stmt 0 view .LVU245
 663 0048 0364     		str	r3, [r0, #64]
 478:./STM32F4xx_HAL_Driver/Src/stm32f4xx_hal_rtc_ex.c **** 
 479:./STM32F4xx_HAL_Driver/Src/stm32f4xx_hal_rtc_ex.c ****   hrtc->State = HAL_RTC_STATE_READY;
 664              		.loc 1 479 3 is_stmt 1 view .LVU246
 665              		.loc 1 479 15 is_stmt 0 view .LVU247
 666 004a 0123     		movs	r3, #1
 667              	.LVL52:
 668              		.loc 1 479 15 view .LVU248
 669 004c 8CF81D30 		strb	r3, [ip, #29]
 670              	.LVL53:
 480:./STM32F4xx_HAL_Driver/Src/stm32f4xx_hal_rtc_ex.c **** 
 481:./STM32F4xx_HAL_Driver/Src/stm32f4xx_hal_rtc_ex.c ****   /* Process Unlocked */
 482:./STM32F4xx_HAL_Driver/Src/stm32f4xx_hal_rtc_ex.c ****   __HAL_UNLOCK(hrtc);
 671              		.loc 1 482 3 is_stmt 1 view .LVU249
 672              		.loc 1 482 3 view .LVU250
 673 0050 0020     		movs	r0, #0
 674 0052 8CF81C00 		strb	r0, [ip, #28]
 675              		.loc 1 482 3 view .LVU251
 483:./STM32F4xx_HAL_Driver/Src/stm32f4xx_hal_rtc_ex.c **** 
 484:./STM32F4xx_HAL_Driver/Src/stm32f4xx_hal_rtc_ex.c ****   return HAL_OK;
 676              		.loc 1 484 3 view .LVU252
 485:./STM32F4xx_HAL_Driver/Src/stm32f4xx_hal_rtc_ex.c **** }
 677              		.loc 1 485 1 is_stmt 0 view .LVU253
 678 0056 5DF8044B 		ldr	r4, [sp], #4
 679              	.LCFI6:
 680              		.cfi_remember_state
 681              		.cfi_restore 4
 682              		.cfi_def_cfa_offset 0
 683 005a 7047     		bx	lr
 684              	.LVL54:
 685              	.L33:
 686              	.LCFI7:
 687              		.cfi_restore_state
 449:./STM32F4xx_HAL_Driver/Src/stm32f4xx_hal_rtc_ex.c ****   }
 688              		.loc 1 449 5 is_stmt 1 view .LVU254
 449:./STM32F4xx_HAL_Driver/Src/stm32f4xx_hal_rtc_ex.c ****   }
 689              		.loc 1 449 12 is_stmt 0 view .LVU255
 690 005c 42EA4302 		orr	r2, r2, r3, lsl #1
 691              	.LVL55:
 449:./STM32F4xx_HAL_Driver/Src/stm32f4xx_hal_rtc_ex.c ****   }
 692              		.loc 1 449 12 view .LVU256
ARM GAS  /tmp/cc9ZOIPt.s 			page 22


 693 0060 E0E7     		b	.L27
 694              	.LVL56:
 695              	.L28:
 696              	.LCFI8:
 697              		.cfi_def_cfa_offset 0
 698              		.cfi_restore 4
 434:./STM32F4xx_HAL_Driver/Src/stm32f4xx_hal_rtc_ex.c **** 
 699              		.loc 1 434 3 view .LVU257
 700 0062 0220     		movs	r0, #2
 701              	.LVL57:
 702              		.loc 1 485 1 view .LVU258
 703 0064 7047     		bx	lr
 704              		.cfi_endproc
 705              	.LFE220:
 707              		.section	.text.HAL_RTCEx_SetTamper_IT,"ax",%progbits
 708              		.align	1
 709              		.global	HAL_RTCEx_SetTamper_IT
 710              		.syntax unified
 711              		.thumb
 712              		.thumb_func
 714              	HAL_RTCEx_SetTamper_IT:
 715              	.LVL58:
 716              	.LFB221:
 486:./STM32F4xx_HAL_Driver/Src/stm32f4xx_hal_rtc_ex.c **** 
 487:./STM32F4xx_HAL_Driver/Src/stm32f4xx_hal_rtc_ex.c **** /**
 488:./STM32F4xx_HAL_Driver/Src/stm32f4xx_hal_rtc_ex.c ****   * @brief  Sets Tamper with interrupt.
 489:./STM32F4xx_HAL_Driver/Src/stm32f4xx_hal_rtc_ex.c ****   * @note   By calling this API the tamper global interrupt will be enabled.
 490:./STM32F4xx_HAL_Driver/Src/stm32f4xx_hal_rtc_ex.c ****   * @param  hrtc pointer to a RTC_HandleTypeDef structure that contains
 491:./STM32F4xx_HAL_Driver/Src/stm32f4xx_hal_rtc_ex.c ****   *                the configuration information for RTC.
 492:./STM32F4xx_HAL_Driver/Src/stm32f4xx_hal_rtc_ex.c ****   * @param  sTamper Pointer to RTC Tamper.
 493:./STM32F4xx_HAL_Driver/Src/stm32f4xx_hal_rtc_ex.c ****   * @retval HAL status
 494:./STM32F4xx_HAL_Driver/Src/stm32f4xx_hal_rtc_ex.c ****   */
 495:./STM32F4xx_HAL_Driver/Src/stm32f4xx_hal_rtc_ex.c **** HAL_StatusTypeDef HAL_RTCEx_SetTamper_IT(RTC_HandleTypeDef *hrtc, RTC_TamperTypeDef *sTamper)
 496:./STM32F4xx_HAL_Driver/Src/stm32f4xx_hal_rtc_ex.c **** {
 717              		.loc 1 496 1 is_stmt 1 view -0
 718              		.cfi_startproc
 719              		@ args = 0, pretend = 0, frame = 0
 720              		@ frame_needed = 0, uses_anonymous_args = 0
 721              		@ link register save eliminated.
 497:./STM32F4xx_HAL_Driver/Src/stm32f4xx_hal_rtc_ex.c ****   uint32_t tmpreg = 0U;
 722              		.loc 1 497 3 view .LVU260
 498:./STM32F4xx_HAL_Driver/Src/stm32f4xx_hal_rtc_ex.c **** 
 499:./STM32F4xx_HAL_Driver/Src/stm32f4xx_hal_rtc_ex.c ****   /* Check the parameters */
 500:./STM32F4xx_HAL_Driver/Src/stm32f4xx_hal_rtc_ex.c ****   assert_param(IS_RTC_TAMPER(sTamper->Tamper));
 723              		.loc 1 500 3 view .LVU261
 501:./STM32F4xx_HAL_Driver/Src/stm32f4xx_hal_rtc_ex.c ****   assert_param(IS_RTC_TAMPER_PIN(sTamper->PinSelection));
 724              		.loc 1 501 3 view .LVU262
 502:./STM32F4xx_HAL_Driver/Src/stm32f4xx_hal_rtc_ex.c ****   assert_param(IS_RTC_TAMPER_TRIGGER(sTamper->Trigger));
 725              		.loc 1 502 3 view .LVU263
 503:./STM32F4xx_HAL_Driver/Src/stm32f4xx_hal_rtc_ex.c ****   assert_param(IS_RTC_TAMPER_FILTER(sTamper->Filter));
 726              		.loc 1 503 3 view .LVU264
 504:./STM32F4xx_HAL_Driver/Src/stm32f4xx_hal_rtc_ex.c ****   assert_param(IS_RTC_TAMPER_FILTER_CONFIG_CORRECT(sTamper->Filter, sTamper->Trigger));
 727              		.loc 1 504 3 view .LVU265
 505:./STM32F4xx_HAL_Driver/Src/stm32f4xx_hal_rtc_ex.c ****   assert_param(IS_RTC_TAMPER_SAMPLING_FREQ(sTamper->SamplingFrequency));
 728              		.loc 1 505 3 view .LVU266
 506:./STM32F4xx_HAL_Driver/Src/stm32f4xx_hal_rtc_ex.c ****   assert_param(IS_RTC_TAMPER_PRECHARGE_DURATION(sTamper->PrechargeDuration));
 729              		.loc 1 506 3 view .LVU267
ARM GAS  /tmp/cc9ZOIPt.s 			page 23


 507:./STM32F4xx_HAL_Driver/Src/stm32f4xx_hal_rtc_ex.c ****   assert_param(IS_RTC_TAMPER_PULLUP_STATE(sTamper->TamperPullUp));
 730              		.loc 1 507 3 view .LVU268
 508:./STM32F4xx_HAL_Driver/Src/stm32f4xx_hal_rtc_ex.c ****   assert_param(IS_RTC_TAMPER_TIMESTAMPONTAMPER_DETECTION(sTamper->TimeStampOnTamperDetection));
 731              		.loc 1 508 3 view .LVU269
 509:./STM32F4xx_HAL_Driver/Src/stm32f4xx_hal_rtc_ex.c **** 
 510:./STM32F4xx_HAL_Driver/Src/stm32f4xx_hal_rtc_ex.c ****   /* Process Locked */
 511:./STM32F4xx_HAL_Driver/Src/stm32f4xx_hal_rtc_ex.c ****   __HAL_LOCK(hrtc);
 732              		.loc 1 511 3 view .LVU270
 733              		.loc 1 511 3 view .LVU271
 734 0000 037F     		ldrb	r3, [r0, #28]	@ zero_extendqisi2
 735 0002 012B     		cmp	r3, #1
 736 0004 36D0     		beq	.L38
 496:./STM32F4xx_HAL_Driver/Src/stm32f4xx_hal_rtc_ex.c ****   uint32_t tmpreg = 0U;
 737              		.loc 1 496 1 is_stmt 0 discriminator 2 view .LVU272
 738 0006 10B4     		push	{r4}
 739              	.LCFI9:
 740              		.cfi_def_cfa_offset 4
 741              		.cfi_offset 4, -4
 742 0008 8446     		mov	ip, r0
 743              		.loc 1 511 3 is_stmt 1 discriminator 2 view .LVU273
 744 000a 0123     		movs	r3, #1
 745 000c 0377     		strb	r3, [r0, #28]
 746              		.loc 1 511 3 discriminator 2 view .LVU274
 512:./STM32F4xx_HAL_Driver/Src/stm32f4xx_hal_rtc_ex.c **** 
 513:./STM32F4xx_HAL_Driver/Src/stm32f4xx_hal_rtc_ex.c ****   hrtc->State = HAL_RTC_STATE_BUSY;
 747              		.loc 1 513 3 discriminator 2 view .LVU275
 748              		.loc 1 513 15 is_stmt 0 discriminator 2 view .LVU276
 749 000e 0223     		movs	r3, #2
 750 0010 4377     		strb	r3, [r0, #29]
 514:./STM32F4xx_HAL_Driver/Src/stm32f4xx_hal_rtc_ex.c **** 
 515:./STM32F4xx_HAL_Driver/Src/stm32f4xx_hal_rtc_ex.c ****   /* Copy control register into temporary variable */
 516:./STM32F4xx_HAL_Driver/Src/stm32f4xx_hal_rtc_ex.c ****   tmpreg = hrtc->Instance->TAFCR;
 751              		.loc 1 516 3 is_stmt 1 discriminator 2 view .LVU277
 752              		.loc 1 516 16 is_stmt 0 discriminator 2 view .LVU278
 753 0012 0068     		ldr	r0, [r0]
 754              	.LVL59:
 755              		.loc 1 516 10 discriminator 2 view .LVU279
 756 0014 026C     		ldr	r2, [r0, #64]
 757              	.LVL60:
 517:./STM32F4xx_HAL_Driver/Src/stm32f4xx_hal_rtc_ex.c **** 
 518:./STM32F4xx_HAL_Driver/Src/stm32f4xx_hal_rtc_ex.c ****   /* Enable selected tamper */
 519:./STM32F4xx_HAL_Driver/Src/stm32f4xx_hal_rtc_ex.c ****   tmpreg |= (sTamper->Tamper);
 758              		.loc 1 519 3 is_stmt 1 discriminator 2 view .LVU280
 759              		.loc 1 519 21 is_stmt 0 discriminator 2 view .LVU281
 760 0016 0B68     		ldr	r3, [r1]
 761              		.loc 1 519 10 discriminator 2 view .LVU282
 762 0018 1A43     		orrs	r2, r2, r3
 763              	.LVL61:
 520:./STM32F4xx_HAL_Driver/Src/stm32f4xx_hal_rtc_ex.c **** 
 521:./STM32F4xx_HAL_Driver/Src/stm32f4xx_hal_rtc_ex.c ****   /* Configure the tamper trigger bit (this bit is just on the right of the
 522:./STM32F4xx_HAL_Driver/Src/stm32f4xx_hal_rtc_ex.c ****        tamper enable bit, hence the one-time right shift before updating it) */
 523:./STM32F4xx_HAL_Driver/Src/stm32f4xx_hal_rtc_ex.c ****   if (sTamper->Trigger == RTC_TAMPERTRIGGER_FALLINGEDGE)
 764              		.loc 1 523 3 is_stmt 1 discriminator 2 view .LVU283
 765              		.loc 1 523 6 is_stmt 0 discriminator 2 view .LVU284
 766 001a 8C68     		ldr	r4, [r1, #8]
 767 001c 022C     		cmp	r4, #2
 768 001e 26D0     		beq	.L43
ARM GAS  /tmp/cc9ZOIPt.s 			page 24


 524:./STM32F4xx_HAL_Driver/Src/stm32f4xx_hal_rtc_ex.c ****   {
 525:./STM32F4xx_HAL_Driver/Src/stm32f4xx_hal_rtc_ex.c ****     /* Set the tamper trigger bit (case of falling edge or high level) */
 526:./STM32F4xx_HAL_Driver/Src/stm32f4xx_hal_rtc_ex.c ****     tmpreg |= (uint32_t)(sTamper->Tamper << 1U);
 527:./STM32F4xx_HAL_Driver/Src/stm32f4xx_hal_rtc_ex.c ****   }
 528:./STM32F4xx_HAL_Driver/Src/stm32f4xx_hal_rtc_ex.c ****   else
 529:./STM32F4xx_HAL_Driver/Src/stm32f4xx_hal_rtc_ex.c ****   {
 530:./STM32F4xx_HAL_Driver/Src/stm32f4xx_hal_rtc_ex.c ****     /* Clear the tamper trigger bit (case of rising edge or low level) */
 531:./STM32F4xx_HAL_Driver/Src/stm32f4xx_hal_rtc_ex.c ****     tmpreg &= (uint32_t)~(sTamper->Tamper << 1U);
 769              		.loc 1 531 5 is_stmt 1 view .LVU285
 770              		.loc 1 531 12 is_stmt 0 view .LVU286
 771 0020 22EA4302 		bic	r2, r2, r3, lsl #1
 772              	.LVL62:
 773              	.L37:
 532:./STM32F4xx_HAL_Driver/Src/stm32f4xx_hal_rtc_ex.c ****   }
 533:./STM32F4xx_HAL_Driver/Src/stm32f4xx_hal_rtc_ex.c **** 
 534:./STM32F4xx_HAL_Driver/Src/stm32f4xx_hal_rtc_ex.c ****   /* Clear remaining fields before setting them */
 535:./STM32F4xx_HAL_Driver/Src/stm32f4xx_hal_rtc_ex.c ****   tmpreg &= ~(RTC_TAMPERFILTER_MASK              | \
 774              		.loc 1 535 3 is_stmt 1 view .LVU287
 775              		.loc 1 535 10 is_stmt 0 view .LVU288
 776 0024 22F4FF32 		bic	r2, r2, #130560
 777              	.LVL63:
 778              		.loc 1 535 10 view .LVU289
 779 0028 22F4C072 		bic	r2, r2, #384
 780              	.LVL64:
 536:./STM32F4xx_HAL_Driver/Src/stm32f4xx_hal_rtc_ex.c ****               RTC_TAMPERSAMPLINGFREQ_RTCCLK_MASK | \
 537:./STM32F4xx_HAL_Driver/Src/stm32f4xx_hal_rtc_ex.c ****               RTC_TAMPERPRECHARGEDURATION_MASK   | \
 538:./STM32F4xx_HAL_Driver/Src/stm32f4xx_hal_rtc_ex.c ****               RTC_TAMPER_PULLUP_MASK             | \
 539:./STM32F4xx_HAL_Driver/Src/stm32f4xx_hal_rtc_ex.c ****               RTC_TAFCR_TAMP1INSEL               | \
 540:./STM32F4xx_HAL_Driver/Src/stm32f4xx_hal_rtc_ex.c ****               RTC_TIMESTAMPONTAMPERDETECTION_MASK);
 541:./STM32F4xx_HAL_Driver/Src/stm32f4xx_hal_rtc_ex.c **** 
 542:./STM32F4xx_HAL_Driver/Src/stm32f4xx_hal_rtc_ex.c ****   /* Set remaining parameters of desired configuration into temporary variable */
 543:./STM32F4xx_HAL_Driver/Src/stm32f4xx_hal_rtc_ex.c ****   tmpreg |= ((uint32_t)sTamper->Filter            | \
 781              		.loc 1 543 3 is_stmt 1 view .LVU290
 782              		.loc 1 543 31 is_stmt 0 view .LVU291
 783 002c CB68     		ldr	r3, [r1, #12]
 784              		.loc 1 543 51 view .LVU292
 785 002e 0C69     		ldr	r4, [r1, #16]
 786 0030 2343     		orrs	r3, r3, r4
 544:./STM32F4xx_HAL_Driver/Src/stm32f4xx_hal_rtc_ex.c ****              (uint32_t)sTamper->SamplingFrequency | \
 787              		.loc 1 544 51 view .LVU293
 788 0032 4C69     		ldr	r4, [r1, #20]
 789 0034 2343     		orrs	r3, r3, r4
 545:./STM32F4xx_HAL_Driver/Src/stm32f4xx_hal_rtc_ex.c ****              (uint32_t)sTamper->PrechargeDuration | \
 790              		.loc 1 545 51 view .LVU294
 791 0036 8C69     		ldr	r4, [r1, #24]
 792 0038 2343     		orrs	r3, r3, r4
 546:./STM32F4xx_HAL_Driver/Src/stm32f4xx_hal_rtc_ex.c ****              (uint32_t)sTamper->TamperPullUp      | \
 793              		.loc 1 546 51 view .LVU295
 794 003a 4C68     		ldr	r4, [r1, #4]
 795 003c 2343     		orrs	r3, r3, r4
 547:./STM32F4xx_HAL_Driver/Src/stm32f4xx_hal_rtc_ex.c ****              (uint32_t)sTamper->PinSelection      | \
 548:./STM32F4xx_HAL_Driver/Src/stm32f4xx_hal_rtc_ex.c ****              (uint32_t)sTamper->TimeStampOnTamperDetection);
 796              		.loc 1 548 31 view .LVU296
 797 003e C969     		ldr	r1, [r1, #28]
 798              	.LVL65:
 547:./STM32F4xx_HAL_Driver/Src/stm32f4xx_hal_rtc_ex.c ****              (uint32_t)sTamper->PinSelection      | \
 799              		.loc 1 547 51 view .LVU297
ARM GAS  /tmp/cc9ZOIPt.s 			page 25


 800 0040 0B43     		orrs	r3, r3, r1
 543:./STM32F4xx_HAL_Driver/Src/stm32f4xx_hal_rtc_ex.c ****              (uint32_t)sTamper->SamplingFrequency | \
 801              		.loc 1 543 10 view .LVU298
 802 0042 1343     		orrs	r3, r3, r2
 803              	.LVL66:
 549:./STM32F4xx_HAL_Driver/Src/stm32f4xx_hal_rtc_ex.c **** 
 550:./STM32F4xx_HAL_Driver/Src/stm32f4xx_hal_rtc_ex.c ****   /* Enable global tamper interrupt */
 551:./STM32F4xx_HAL_Driver/Src/stm32f4xx_hal_rtc_ex.c ****   tmpreg |= (uint32_t)RTC_TAFCR_TAMPIE;
 804              		.loc 1 551 3 is_stmt 1 view .LVU299
 805              		.loc 1 551 10 is_stmt 0 view .LVU300
 806 0044 43F00403 		orr	r3, r3, #4
 807              	.LVL67:
 552:./STM32F4xx_HAL_Driver/Src/stm32f4xx_hal_rtc_ex.c **** 
 553:./STM32F4xx_HAL_Driver/Src/stm32f4xx_hal_rtc_ex.c ****   /* Copy desired configuration into configuration register */
 554:./STM32F4xx_HAL_Driver/Src/stm32f4xx_hal_rtc_ex.c ****   hrtc->Instance->TAFCR = tmpreg;
 808              		.loc 1 554 3 is_stmt 1 view .LVU301
 809              		.loc 1 554 25 is_stmt 0 view .LVU302
 810 0048 0364     		str	r3, [r0, #64]
 555:./STM32F4xx_HAL_Driver/Src/stm32f4xx_hal_rtc_ex.c **** 
 556:./STM32F4xx_HAL_Driver/Src/stm32f4xx_hal_rtc_ex.c ****   /* RTC Tamper Interrupt Configuration: EXTI configuration */
 557:./STM32F4xx_HAL_Driver/Src/stm32f4xx_hal_rtc_ex.c ****   __HAL_RTC_TAMPER_TIMESTAMP_EXTI_ENABLE_IT();
 811              		.loc 1 557 3 is_stmt 1 view .LVU303
 812 004a 0B4B     		ldr	r3, .L44
 813              	.LVL68:
 814              		.loc 1 557 3 is_stmt 0 view .LVU304
 815 004c 1A68     		ldr	r2, [r3]
 816 004e 42F40012 		orr	r2, r2, #2097152
 817 0052 1A60     		str	r2, [r3]
 818              	.LVL69:
 558:./STM32F4xx_HAL_Driver/Src/stm32f4xx_hal_rtc_ex.c ****   __HAL_RTC_TAMPER_TIMESTAMP_EXTI_ENABLE_RISING_EDGE();
 819              		.loc 1 558 3 is_stmt 1 view .LVU305
 820 0054 9A68     		ldr	r2, [r3, #8]
 821 0056 42F40012 		orr	r2, r2, #2097152
 822 005a 9A60     		str	r2, [r3, #8]
 559:./STM32F4xx_HAL_Driver/Src/stm32f4xx_hal_rtc_ex.c **** 
 560:./STM32F4xx_HAL_Driver/Src/stm32f4xx_hal_rtc_ex.c ****   hrtc->State = HAL_RTC_STATE_READY;
 823              		.loc 1 560 3 view .LVU306
 824              		.loc 1 560 15 is_stmt 0 view .LVU307
 825 005c 0123     		movs	r3, #1
 826 005e 8CF81D30 		strb	r3, [ip, #29]
 561:./STM32F4xx_HAL_Driver/Src/stm32f4xx_hal_rtc_ex.c **** 
 562:./STM32F4xx_HAL_Driver/Src/stm32f4xx_hal_rtc_ex.c ****   /* Process Unlocked */
 563:./STM32F4xx_HAL_Driver/Src/stm32f4xx_hal_rtc_ex.c ****   __HAL_UNLOCK(hrtc);
 827              		.loc 1 563 3 is_stmt 1 view .LVU308
 828              		.loc 1 563 3 view .LVU309
 829 0062 0020     		movs	r0, #0
 830 0064 8CF81C00 		strb	r0, [ip, #28]
 831              		.loc 1 563 3 view .LVU310
 564:./STM32F4xx_HAL_Driver/Src/stm32f4xx_hal_rtc_ex.c **** 
 565:./STM32F4xx_HAL_Driver/Src/stm32f4xx_hal_rtc_ex.c ****   return HAL_OK;
 832              		.loc 1 565 3 view .LVU311
 566:./STM32F4xx_HAL_Driver/Src/stm32f4xx_hal_rtc_ex.c **** }
 833              		.loc 1 566 1 is_stmt 0 view .LVU312
 834 0068 5DF8044B 		ldr	r4, [sp], #4
 835              	.LCFI10:
 836              		.cfi_remember_state
 837              		.cfi_restore 4
ARM GAS  /tmp/cc9ZOIPt.s 			page 26


 838              		.cfi_def_cfa_offset 0
 839 006c 7047     		bx	lr
 840              	.LVL70:
 841              	.L43:
 842              	.LCFI11:
 843              		.cfi_restore_state
 526:./STM32F4xx_HAL_Driver/Src/stm32f4xx_hal_rtc_ex.c ****   }
 844              		.loc 1 526 5 is_stmt 1 view .LVU313
 526:./STM32F4xx_HAL_Driver/Src/stm32f4xx_hal_rtc_ex.c ****   }
 845              		.loc 1 526 12 is_stmt 0 view .LVU314
 846 006e 42EA4302 		orr	r2, r2, r3, lsl #1
 847              	.LVL71:
 526:./STM32F4xx_HAL_Driver/Src/stm32f4xx_hal_rtc_ex.c ****   }
 848              		.loc 1 526 12 view .LVU315
 849 0072 D7E7     		b	.L37
 850              	.LVL72:
 851              	.L38:
 852              	.LCFI12:
 853              		.cfi_def_cfa_offset 0
 854              		.cfi_restore 4
 511:./STM32F4xx_HAL_Driver/Src/stm32f4xx_hal_rtc_ex.c **** 
 855              		.loc 1 511 3 view .LVU316
 856 0074 0220     		movs	r0, #2
 857              	.LVL73:
 858              		.loc 1 566 1 view .LVU317
 859 0076 7047     		bx	lr
 860              	.L45:
 861              		.align	2
 862              	.L44:
 863 0078 003C0140 		.word	1073822720
 864              		.cfi_endproc
 865              	.LFE221:
 867              		.section	.text.HAL_RTCEx_DeactivateTamper,"ax",%progbits
 868              		.align	1
 869              		.global	HAL_RTCEx_DeactivateTamper
 870              		.syntax unified
 871              		.thumb
 872              		.thumb_func
 874              	HAL_RTCEx_DeactivateTamper:
 875              	.LVL74:
 876              	.LFB222:
 567:./STM32F4xx_HAL_Driver/Src/stm32f4xx_hal_rtc_ex.c **** 
 568:./STM32F4xx_HAL_Driver/Src/stm32f4xx_hal_rtc_ex.c **** /**
 569:./STM32F4xx_HAL_Driver/Src/stm32f4xx_hal_rtc_ex.c ****   * @brief  Deactivates Tamper.
 570:./STM32F4xx_HAL_Driver/Src/stm32f4xx_hal_rtc_ex.c ****   * @note   The tamper global interrupt bit will remain unchanged.
 571:./STM32F4xx_HAL_Driver/Src/stm32f4xx_hal_rtc_ex.c ****   * @param  hrtc pointer to a RTC_HandleTypeDef structure that contains
 572:./STM32F4xx_HAL_Driver/Src/stm32f4xx_hal_rtc_ex.c ****   *                the configuration information for RTC.
 573:./STM32F4xx_HAL_Driver/Src/stm32f4xx_hal_rtc_ex.c ****   * @param  Tamper Selected tamper pin.
 574:./STM32F4xx_HAL_Driver/Src/stm32f4xx_hal_rtc_ex.c ****   *          This parameter can be any combination of the following values:
 575:./STM32F4xx_HAL_Driver/Src/stm32f4xx_hal_rtc_ex.c ****   *            @arg RTC_TAMPER_1:  Tamper 1
 576:./STM32F4xx_HAL_Driver/Src/stm32f4xx_hal_rtc_ex.c ****   *            @arg RTC_TAMPER_2:  Tamper 2
 577:./STM32F4xx_HAL_Driver/Src/stm32f4xx_hal_rtc_ex.c ****   * @note   RTC_TAMPER_2 is not applicable to all devices.
 578:./STM32F4xx_HAL_Driver/Src/stm32f4xx_hal_rtc_ex.c ****   * @retval HAL status
 579:./STM32F4xx_HAL_Driver/Src/stm32f4xx_hal_rtc_ex.c ****   */
 580:./STM32F4xx_HAL_Driver/Src/stm32f4xx_hal_rtc_ex.c **** HAL_StatusTypeDef HAL_RTCEx_DeactivateTamper(RTC_HandleTypeDef *hrtc, uint32_t Tamper)
 581:./STM32F4xx_HAL_Driver/Src/stm32f4xx_hal_rtc_ex.c **** {
 877              		.loc 1 581 1 is_stmt 1 view -0
ARM GAS  /tmp/cc9ZOIPt.s 			page 27


 878              		.cfi_startproc
 879              		@ args = 0, pretend = 0, frame = 0
 880              		@ frame_needed = 0, uses_anonymous_args = 0
 881              		@ link register save eliminated.
 582:./STM32F4xx_HAL_Driver/Src/stm32f4xx_hal_rtc_ex.c ****   assert_param(IS_RTC_TAMPER(Tamper));
 882              		.loc 1 582 3 view .LVU319
 583:./STM32F4xx_HAL_Driver/Src/stm32f4xx_hal_rtc_ex.c **** 
 584:./STM32F4xx_HAL_Driver/Src/stm32f4xx_hal_rtc_ex.c ****   /* Process Locked */
 585:./STM32F4xx_HAL_Driver/Src/stm32f4xx_hal_rtc_ex.c ****   __HAL_LOCK(hrtc);
 883              		.loc 1 585 3 view .LVU320
 884              		.loc 1 585 3 view .LVU321
 885 0000 037F     		ldrb	r3, [r0, #28]	@ zero_extendqisi2
 886 0002 012B     		cmp	r3, #1
 887 0004 10D0     		beq	.L48
 581:./STM32F4xx_HAL_Driver/Src/stm32f4xx_hal_rtc_ex.c ****   assert_param(IS_RTC_TAMPER(Tamper));
 888              		.loc 1 581 1 is_stmt 0 discriminator 2 view .LVU322
 889 0006 10B4     		push	{r4}
 890              	.LCFI13:
 891              		.cfi_def_cfa_offset 4
 892              		.cfi_offset 4, -4
 893              		.loc 1 585 3 is_stmt 1 discriminator 2 view .LVU323
 894 0008 0122     		movs	r2, #1
 895 000a 0277     		strb	r2, [r0, #28]
 896              		.loc 1 585 3 discriminator 2 view .LVU324
 586:./STM32F4xx_HAL_Driver/Src/stm32f4xx_hal_rtc_ex.c **** 
 587:./STM32F4xx_HAL_Driver/Src/stm32f4xx_hal_rtc_ex.c ****   hrtc->State = HAL_RTC_STATE_BUSY;
 897              		.loc 1 587 3 discriminator 2 view .LVU325
 898              		.loc 1 587 15 is_stmt 0 discriminator 2 view .LVU326
 899 000c 0223     		movs	r3, #2
 900 000e 4377     		strb	r3, [r0, #29]
 588:./STM32F4xx_HAL_Driver/Src/stm32f4xx_hal_rtc_ex.c **** 
 589:./STM32F4xx_HAL_Driver/Src/stm32f4xx_hal_rtc_ex.c ****   /* Disable the selected Tamper pin */
 590:./STM32F4xx_HAL_Driver/Src/stm32f4xx_hal_rtc_ex.c ****   hrtc->Instance->TAFCR &= (uint32_t)~Tamper;
 901              		.loc 1 590 3 is_stmt 1 discriminator 2 view .LVU327
 902              		.loc 1 590 7 is_stmt 0 discriminator 2 view .LVU328
 903 0010 0468     		ldr	r4, [r0]
 904              		.loc 1 590 17 discriminator 2 view .LVU329
 905 0012 236C     		ldr	r3, [r4, #64]
 906              		.loc 1 590 25 discriminator 2 view .LVU330
 907 0014 23EA0103 		bic	r3, r3, r1
 908 0018 2364     		str	r3, [r4, #64]
 591:./STM32F4xx_HAL_Driver/Src/stm32f4xx_hal_rtc_ex.c **** 
 592:./STM32F4xx_HAL_Driver/Src/stm32f4xx_hal_rtc_ex.c ****   hrtc->State = HAL_RTC_STATE_READY;
 909              		.loc 1 592 3 is_stmt 1 discriminator 2 view .LVU331
 910              		.loc 1 592 15 is_stmt 0 discriminator 2 view .LVU332
 911 001a 4277     		strb	r2, [r0, #29]
 593:./STM32F4xx_HAL_Driver/Src/stm32f4xx_hal_rtc_ex.c **** 
 594:./STM32F4xx_HAL_Driver/Src/stm32f4xx_hal_rtc_ex.c ****   /* Process Unlocked */
 595:./STM32F4xx_HAL_Driver/Src/stm32f4xx_hal_rtc_ex.c ****   __HAL_UNLOCK(hrtc);
 912              		.loc 1 595 3 is_stmt 1 discriminator 2 view .LVU333
 913              		.loc 1 595 3 discriminator 2 view .LVU334
 914 001c 0023     		movs	r3, #0
 915 001e 0377     		strb	r3, [r0, #28]
 916              		.loc 1 595 3 discriminator 2 view .LVU335
 596:./STM32F4xx_HAL_Driver/Src/stm32f4xx_hal_rtc_ex.c **** 
 597:./STM32F4xx_HAL_Driver/Src/stm32f4xx_hal_rtc_ex.c ****   return HAL_OK;
 917              		.loc 1 597 3 discriminator 2 view .LVU336
ARM GAS  /tmp/cc9ZOIPt.s 			page 28


 918              		.loc 1 597 10 is_stmt 0 discriminator 2 view .LVU337
 919 0020 1846     		mov	r0, r3
 920              	.LVL75:
 598:./STM32F4xx_HAL_Driver/Src/stm32f4xx_hal_rtc_ex.c **** }
 921              		.loc 1 598 1 discriminator 2 view .LVU338
 922 0022 5DF8044B 		ldr	r4, [sp], #4
 923              	.LCFI14:
 924              		.cfi_restore 4
 925              		.cfi_def_cfa_offset 0
 926 0026 7047     		bx	lr
 927              	.LVL76:
 928              	.L48:
 585:./STM32F4xx_HAL_Driver/Src/stm32f4xx_hal_rtc_ex.c **** 
 929              		.loc 1 585 3 view .LVU339
 930 0028 0220     		movs	r0, #2
 931              	.LVL77:
 932              		.loc 1 598 1 view .LVU340
 933 002a 7047     		bx	lr
 934              		.cfi_endproc
 935              	.LFE222:
 937              		.section	.text.HAL_RTCEx_TimeStampEventCallback,"ax",%progbits
 938              		.align	1
 939              		.weak	HAL_RTCEx_TimeStampEventCallback
 940              		.syntax unified
 941              		.thumb
 942              		.thumb_func
 944              	HAL_RTCEx_TimeStampEventCallback:
 945              	.LVL78:
 946              	.LFB224:
 599:./STM32F4xx_HAL_Driver/Src/stm32f4xx_hal_rtc_ex.c **** 
 600:./STM32F4xx_HAL_Driver/Src/stm32f4xx_hal_rtc_ex.c **** /**
 601:./STM32F4xx_HAL_Driver/Src/stm32f4xx_hal_rtc_ex.c ****   * @brief  Handles Timestamp and Tamper interrupt request.
 602:./STM32F4xx_HAL_Driver/Src/stm32f4xx_hal_rtc_ex.c ****   * @param  hrtc pointer to a RTC_HandleTypeDef structure that contains
 603:./STM32F4xx_HAL_Driver/Src/stm32f4xx_hal_rtc_ex.c ****   *                the configuration information for RTC.
 604:./STM32F4xx_HAL_Driver/Src/stm32f4xx_hal_rtc_ex.c ****   * @retval None
 605:./STM32F4xx_HAL_Driver/Src/stm32f4xx_hal_rtc_ex.c ****   */
 606:./STM32F4xx_HAL_Driver/Src/stm32f4xx_hal_rtc_ex.c **** void HAL_RTCEx_TamperTimeStampIRQHandler(RTC_HandleTypeDef *hrtc)
 607:./STM32F4xx_HAL_Driver/Src/stm32f4xx_hal_rtc_ex.c **** {
 608:./STM32F4xx_HAL_Driver/Src/stm32f4xx_hal_rtc_ex.c ****   /* Get the Timestamp interrupt source enable status */
 609:./STM32F4xx_HAL_Driver/Src/stm32f4xx_hal_rtc_ex.c ****   if (__HAL_RTC_TIMESTAMP_GET_IT_SOURCE(hrtc, RTC_IT_TS) != 0U)
 610:./STM32F4xx_HAL_Driver/Src/stm32f4xx_hal_rtc_ex.c ****   {
 611:./STM32F4xx_HAL_Driver/Src/stm32f4xx_hal_rtc_ex.c ****     /* Get the pending status of the Timestamp Interrupt */
 612:./STM32F4xx_HAL_Driver/Src/stm32f4xx_hal_rtc_ex.c ****     if (__HAL_RTC_TIMESTAMP_GET_FLAG(hrtc, RTC_FLAG_TSF) != 0U)
 613:./STM32F4xx_HAL_Driver/Src/stm32f4xx_hal_rtc_ex.c ****     {
 614:./STM32F4xx_HAL_Driver/Src/stm32f4xx_hal_rtc_ex.c ****       /* Timestamp callback */
 615:./STM32F4xx_HAL_Driver/Src/stm32f4xx_hal_rtc_ex.c **** #if (USE_HAL_RTC_REGISTER_CALLBACKS == 1)
 616:./STM32F4xx_HAL_Driver/Src/stm32f4xx_hal_rtc_ex.c ****       hrtc->TimeStampEventCallback(hrtc);
 617:./STM32F4xx_HAL_Driver/Src/stm32f4xx_hal_rtc_ex.c **** #else
 618:./STM32F4xx_HAL_Driver/Src/stm32f4xx_hal_rtc_ex.c ****       HAL_RTCEx_TimeStampEventCallback(hrtc);
 619:./STM32F4xx_HAL_Driver/Src/stm32f4xx_hal_rtc_ex.c **** #endif /* USE_HAL_RTC_REGISTER_CALLBACKS */
 620:./STM32F4xx_HAL_Driver/Src/stm32f4xx_hal_rtc_ex.c **** 
 621:./STM32F4xx_HAL_Driver/Src/stm32f4xx_hal_rtc_ex.c ****       /* Clear the Timestamp interrupt pending bit */
 622:./STM32F4xx_HAL_Driver/Src/stm32f4xx_hal_rtc_ex.c ****       __HAL_RTC_TIMESTAMP_CLEAR_FLAG(hrtc, RTC_FLAG_TSF);
 623:./STM32F4xx_HAL_Driver/Src/stm32f4xx_hal_rtc_ex.c ****     }
 624:./STM32F4xx_HAL_Driver/Src/stm32f4xx_hal_rtc_ex.c ****   }
 625:./STM32F4xx_HAL_Driver/Src/stm32f4xx_hal_rtc_ex.c **** 
 626:./STM32F4xx_HAL_Driver/Src/stm32f4xx_hal_rtc_ex.c ****   /* Get the Tamper 1 interrupt source enable status */
ARM GAS  /tmp/cc9ZOIPt.s 			page 29


 627:./STM32F4xx_HAL_Driver/Src/stm32f4xx_hal_rtc_ex.c ****   if (__HAL_RTC_TAMPER_GET_IT_SOURCE(hrtc, RTC_IT_TAMP) != 0U)
 628:./STM32F4xx_HAL_Driver/Src/stm32f4xx_hal_rtc_ex.c ****   {
 629:./STM32F4xx_HAL_Driver/Src/stm32f4xx_hal_rtc_ex.c ****     /* Get the pending status of the Tamper 1 Interrupt */
 630:./STM32F4xx_HAL_Driver/Src/stm32f4xx_hal_rtc_ex.c ****     if (__HAL_RTC_TAMPER_GET_FLAG(hrtc, RTC_FLAG_TAMP1F) != 0U)
 631:./STM32F4xx_HAL_Driver/Src/stm32f4xx_hal_rtc_ex.c ****     {
 632:./STM32F4xx_HAL_Driver/Src/stm32f4xx_hal_rtc_ex.c ****       /* Tamper callback */
 633:./STM32F4xx_HAL_Driver/Src/stm32f4xx_hal_rtc_ex.c **** #if (USE_HAL_RTC_REGISTER_CALLBACKS == 1)
 634:./STM32F4xx_HAL_Driver/Src/stm32f4xx_hal_rtc_ex.c ****       hrtc->Tamper1EventCallback(hrtc);
 635:./STM32F4xx_HAL_Driver/Src/stm32f4xx_hal_rtc_ex.c **** #else
 636:./STM32F4xx_HAL_Driver/Src/stm32f4xx_hal_rtc_ex.c ****       HAL_RTCEx_Tamper1EventCallback(hrtc);
 637:./STM32F4xx_HAL_Driver/Src/stm32f4xx_hal_rtc_ex.c **** #endif /* USE_HAL_RTC_REGISTER_CALLBACKS */
 638:./STM32F4xx_HAL_Driver/Src/stm32f4xx_hal_rtc_ex.c **** 
 639:./STM32F4xx_HAL_Driver/Src/stm32f4xx_hal_rtc_ex.c ****       /* Clear the Tamper interrupt pending bit */
 640:./STM32F4xx_HAL_Driver/Src/stm32f4xx_hal_rtc_ex.c ****       __HAL_RTC_TAMPER_CLEAR_FLAG(hrtc, RTC_FLAG_TAMP1F);
 641:./STM32F4xx_HAL_Driver/Src/stm32f4xx_hal_rtc_ex.c ****     }
 642:./STM32F4xx_HAL_Driver/Src/stm32f4xx_hal_rtc_ex.c ****   }
 643:./STM32F4xx_HAL_Driver/Src/stm32f4xx_hal_rtc_ex.c **** 
 644:./STM32F4xx_HAL_Driver/Src/stm32f4xx_hal_rtc_ex.c **** #if defined(RTC_TAMPER2_SUPPORT)
 645:./STM32F4xx_HAL_Driver/Src/stm32f4xx_hal_rtc_ex.c ****   /* Get the Tamper 2 interrupt source enable status */
 646:./STM32F4xx_HAL_Driver/Src/stm32f4xx_hal_rtc_ex.c ****   if (__HAL_RTC_TAMPER_GET_IT_SOURCE(hrtc, RTC_IT_TAMP) != 0U)
 647:./STM32F4xx_HAL_Driver/Src/stm32f4xx_hal_rtc_ex.c ****   {
 648:./STM32F4xx_HAL_Driver/Src/stm32f4xx_hal_rtc_ex.c ****     /* Get the pending status of the Tamper 2 Interrupt */
 649:./STM32F4xx_HAL_Driver/Src/stm32f4xx_hal_rtc_ex.c ****     if (__HAL_RTC_TAMPER_GET_FLAG(hrtc, RTC_FLAG_TAMP2F) != 0U)
 650:./STM32F4xx_HAL_Driver/Src/stm32f4xx_hal_rtc_ex.c ****     {
 651:./STM32F4xx_HAL_Driver/Src/stm32f4xx_hal_rtc_ex.c ****       /* Tamper callback */
 652:./STM32F4xx_HAL_Driver/Src/stm32f4xx_hal_rtc_ex.c **** #if (USE_HAL_RTC_REGISTER_CALLBACKS == 1)
 653:./STM32F4xx_HAL_Driver/Src/stm32f4xx_hal_rtc_ex.c ****       hrtc->Tamper2EventCallback(hrtc);
 654:./STM32F4xx_HAL_Driver/Src/stm32f4xx_hal_rtc_ex.c **** #else
 655:./STM32F4xx_HAL_Driver/Src/stm32f4xx_hal_rtc_ex.c ****       HAL_RTCEx_Tamper2EventCallback(hrtc);
 656:./STM32F4xx_HAL_Driver/Src/stm32f4xx_hal_rtc_ex.c **** #endif /* USE_HAL_RTC_REGISTER_CALLBACKS */
 657:./STM32F4xx_HAL_Driver/Src/stm32f4xx_hal_rtc_ex.c **** 
 658:./STM32F4xx_HAL_Driver/Src/stm32f4xx_hal_rtc_ex.c ****       /* Clear the Tamper interrupt pending bit */
 659:./STM32F4xx_HAL_Driver/Src/stm32f4xx_hal_rtc_ex.c ****       __HAL_RTC_TAMPER_CLEAR_FLAG(hrtc, RTC_FLAG_TAMP2F);
 660:./STM32F4xx_HAL_Driver/Src/stm32f4xx_hal_rtc_ex.c ****     }
 661:./STM32F4xx_HAL_Driver/Src/stm32f4xx_hal_rtc_ex.c ****   }
 662:./STM32F4xx_HAL_Driver/Src/stm32f4xx_hal_rtc_ex.c **** #endif /* RTC_TAMPER2_SUPPORT */
 663:./STM32F4xx_HAL_Driver/Src/stm32f4xx_hal_rtc_ex.c **** 
 664:./STM32F4xx_HAL_Driver/Src/stm32f4xx_hal_rtc_ex.c ****   /* Clear the EXTI's Flag for RTC Timestamp and Tamper */
 665:./STM32F4xx_HAL_Driver/Src/stm32f4xx_hal_rtc_ex.c ****   __HAL_RTC_TAMPER_TIMESTAMP_EXTI_CLEAR_FLAG();
 666:./STM32F4xx_HAL_Driver/Src/stm32f4xx_hal_rtc_ex.c **** 
 667:./STM32F4xx_HAL_Driver/Src/stm32f4xx_hal_rtc_ex.c ****   /* Change RTC state */
 668:./STM32F4xx_HAL_Driver/Src/stm32f4xx_hal_rtc_ex.c ****   hrtc->State = HAL_RTC_STATE_READY;
 669:./STM32F4xx_HAL_Driver/Src/stm32f4xx_hal_rtc_ex.c **** }
 670:./STM32F4xx_HAL_Driver/Src/stm32f4xx_hal_rtc_ex.c **** 
 671:./STM32F4xx_HAL_Driver/Src/stm32f4xx_hal_rtc_ex.c **** /**
 672:./STM32F4xx_HAL_Driver/Src/stm32f4xx_hal_rtc_ex.c ****   * @brief  Timestamp callback.
 673:./STM32F4xx_HAL_Driver/Src/stm32f4xx_hal_rtc_ex.c ****   * @param  hrtc pointer to a RTC_HandleTypeDef structure that contains
 674:./STM32F4xx_HAL_Driver/Src/stm32f4xx_hal_rtc_ex.c ****   *                the configuration information for RTC.
 675:./STM32F4xx_HAL_Driver/Src/stm32f4xx_hal_rtc_ex.c ****   * @retval None
 676:./STM32F4xx_HAL_Driver/Src/stm32f4xx_hal_rtc_ex.c ****   */
 677:./STM32F4xx_HAL_Driver/Src/stm32f4xx_hal_rtc_ex.c **** __weak void HAL_RTCEx_TimeStampEventCallback(RTC_HandleTypeDef *hrtc)
 678:./STM32F4xx_HAL_Driver/Src/stm32f4xx_hal_rtc_ex.c **** {
 947              		.loc 1 678 1 is_stmt 1 view -0
 948              		.cfi_startproc
 949              		@ args = 0, pretend = 0, frame = 0
 950              		@ frame_needed = 0, uses_anonymous_args = 0
 951              		@ link register save eliminated.
ARM GAS  /tmp/cc9ZOIPt.s 			page 30


 679:./STM32F4xx_HAL_Driver/Src/stm32f4xx_hal_rtc_ex.c ****   /* Prevent unused argument(s) compilation warning */
 680:./STM32F4xx_HAL_Driver/Src/stm32f4xx_hal_rtc_ex.c ****   UNUSED(hrtc);
 952              		.loc 1 680 3 view .LVU342
 681:./STM32F4xx_HAL_Driver/Src/stm32f4xx_hal_rtc_ex.c **** 
 682:./STM32F4xx_HAL_Driver/Src/stm32f4xx_hal_rtc_ex.c ****   /* NOTE: This function should not be modified, when the callback is needed,
 683:./STM32F4xx_HAL_Driver/Src/stm32f4xx_hal_rtc_ex.c ****            the HAL_RTCEx_TimeStampEventCallback could be implemented in the user file
 684:./STM32F4xx_HAL_Driver/Src/stm32f4xx_hal_rtc_ex.c ****   */
 685:./STM32F4xx_HAL_Driver/Src/stm32f4xx_hal_rtc_ex.c **** }
 953              		.loc 1 685 1 is_stmt 0 view .LVU343
 954 0000 7047     		bx	lr
 955              		.cfi_endproc
 956              	.LFE224:
 958              		.section	.text.HAL_RTCEx_Tamper1EventCallback,"ax",%progbits
 959              		.align	1
 960              		.weak	HAL_RTCEx_Tamper1EventCallback
 961              		.syntax unified
 962              		.thumb
 963              		.thumb_func
 965              	HAL_RTCEx_Tamper1EventCallback:
 966              	.LVL79:
 967              	.LFB225:
 686:./STM32F4xx_HAL_Driver/Src/stm32f4xx_hal_rtc_ex.c **** 
 687:./STM32F4xx_HAL_Driver/Src/stm32f4xx_hal_rtc_ex.c **** /**
 688:./STM32F4xx_HAL_Driver/Src/stm32f4xx_hal_rtc_ex.c ****   * @brief  Tamper 1 callback.
 689:./STM32F4xx_HAL_Driver/Src/stm32f4xx_hal_rtc_ex.c ****   * @param  hrtc pointer to a RTC_HandleTypeDef structure that contains
 690:./STM32F4xx_HAL_Driver/Src/stm32f4xx_hal_rtc_ex.c ****   *                the configuration information for RTC.
 691:./STM32F4xx_HAL_Driver/Src/stm32f4xx_hal_rtc_ex.c ****   * @retval None
 692:./STM32F4xx_HAL_Driver/Src/stm32f4xx_hal_rtc_ex.c ****   */
 693:./STM32F4xx_HAL_Driver/Src/stm32f4xx_hal_rtc_ex.c **** __weak void HAL_RTCEx_Tamper1EventCallback(RTC_HandleTypeDef *hrtc)
 694:./STM32F4xx_HAL_Driver/Src/stm32f4xx_hal_rtc_ex.c **** {
 968              		.loc 1 694 1 is_stmt 1 view -0
 969              		.cfi_startproc
 970              		@ args = 0, pretend = 0, frame = 0
 971              		@ frame_needed = 0, uses_anonymous_args = 0
 972              		@ link register save eliminated.
 695:./STM32F4xx_HAL_Driver/Src/stm32f4xx_hal_rtc_ex.c ****   /* Prevent unused argument(s) compilation warning */
 696:./STM32F4xx_HAL_Driver/Src/stm32f4xx_hal_rtc_ex.c ****   UNUSED(hrtc);
 973              		.loc 1 696 3 view .LVU345
 697:./STM32F4xx_HAL_Driver/Src/stm32f4xx_hal_rtc_ex.c **** 
 698:./STM32F4xx_HAL_Driver/Src/stm32f4xx_hal_rtc_ex.c ****   /* NOTE: This function should not be modified, when the callback is needed,
 699:./STM32F4xx_HAL_Driver/Src/stm32f4xx_hal_rtc_ex.c ****            the HAL_RTCEx_Tamper1EventCallback could be implemented in the user file
 700:./STM32F4xx_HAL_Driver/Src/stm32f4xx_hal_rtc_ex.c ****    */
 701:./STM32F4xx_HAL_Driver/Src/stm32f4xx_hal_rtc_ex.c **** }
 974              		.loc 1 701 1 is_stmt 0 view .LVU346
 975 0000 7047     		bx	lr
 976              		.cfi_endproc
 977              	.LFE225:
 979              		.section	.text.HAL_RTCEx_TamperTimeStampIRQHandler,"ax",%progbits
 980              		.align	1
 981              		.global	HAL_RTCEx_TamperTimeStampIRQHandler
 982              		.syntax unified
 983              		.thumb
 984              		.thumb_func
 986              	HAL_RTCEx_TamperTimeStampIRQHandler:
 987              	.LVL80:
 988              	.LFB223:
 607:./STM32F4xx_HAL_Driver/Src/stm32f4xx_hal_rtc_ex.c ****   /* Get the Timestamp interrupt source enable status */
ARM GAS  /tmp/cc9ZOIPt.s 			page 31


 989              		.loc 1 607 1 is_stmt 1 view -0
 990              		.cfi_startproc
 991              		@ args = 0, pretend = 0, frame = 0
 992              		@ frame_needed = 0, uses_anonymous_args = 0
 607:./STM32F4xx_HAL_Driver/Src/stm32f4xx_hal_rtc_ex.c ****   /* Get the Timestamp interrupt source enable status */
 993              		.loc 1 607 1 is_stmt 0 view .LVU348
 994 0000 10B5     		push	{r4, lr}
 995              	.LCFI15:
 996              		.cfi_def_cfa_offset 8
 997              		.cfi_offset 4, -8
 998              		.cfi_offset 14, -4
 999 0002 0446     		mov	r4, r0
 609:./STM32F4xx_HAL_Driver/Src/stm32f4xx_hal_rtc_ex.c ****   {
 1000              		.loc 1 609 3 is_stmt 1 view .LVU349
 609:./STM32F4xx_HAL_Driver/Src/stm32f4xx_hal_rtc_ex.c ****   {
 1001              		.loc 1 609 7 is_stmt 0 view .LVU350
 1002 0004 0368     		ldr	r3, [r0]
 1003 0006 9A68     		ldr	r2, [r3, #8]
 609:./STM32F4xx_HAL_Driver/Src/stm32f4xx_hal_rtc_ex.c ****   {
 1004              		.loc 1 609 6 view .LVU351
 1005 0008 12F4004F 		tst	r2, #32768
 1006 000c 03D0     		beq	.L56
 612:./STM32F4xx_HAL_Driver/Src/stm32f4xx_hal_rtc_ex.c ****     {
 1007              		.loc 1 612 5 is_stmt 1 view .LVU352
 612:./STM32F4xx_HAL_Driver/Src/stm32f4xx_hal_rtc_ex.c ****     {
 1008              		.loc 1 612 9 is_stmt 0 view .LVU353
 1009 000e DB68     		ldr	r3, [r3, #12]
 612:./STM32F4xx_HAL_Driver/Src/stm32f4xx_hal_rtc_ex.c ****     {
 1010              		.loc 1 612 8 view .LVU354
 1011 0010 13F4006F 		tst	r3, #2048
 1012 0014 0FD1     		bne	.L59
 1013              	.LVL81:
 1014              	.L56:
 627:./STM32F4xx_HAL_Driver/Src/stm32f4xx_hal_rtc_ex.c ****   {
 1015              		.loc 1 627 3 is_stmt 1 view .LVU355
 627:./STM32F4xx_HAL_Driver/Src/stm32f4xx_hal_rtc_ex.c ****   {
 1016              		.loc 1 627 7 is_stmt 0 view .LVU356
 1017 0016 2368     		ldr	r3, [r4]
 1018 0018 1A6C     		ldr	r2, [r3, #64]
 627:./STM32F4xx_HAL_Driver/Src/stm32f4xx_hal_rtc_ex.c ****   {
 1019              		.loc 1 627 6 view .LVU357
 1020 001a 12F0040F 		tst	r2, #4
 1021 001e 03D0     		beq	.L57
 630:./STM32F4xx_HAL_Driver/Src/stm32f4xx_hal_rtc_ex.c ****     {
 1022              		.loc 1 630 5 is_stmt 1 view .LVU358
 630:./STM32F4xx_HAL_Driver/Src/stm32f4xx_hal_rtc_ex.c ****     {
 1023              		.loc 1 630 9 is_stmt 0 view .LVU359
 1024 0020 DB68     		ldr	r3, [r3, #12]
 630:./STM32F4xx_HAL_Driver/Src/stm32f4xx_hal_rtc_ex.c ****     {
 1025              		.loc 1 630 8 view .LVU360
 1026 0022 13F4005F 		tst	r3, #8192
 1027 0026 0FD1     		bne	.L60
 1028              	.L57:
 665:./STM32F4xx_HAL_Driver/Src/stm32f4xx_hal_rtc_ex.c **** 
 1029              		.loc 1 665 3 is_stmt 1 view .LVU361
 1030 0028 0C4B     		ldr	r3, .L61
 1031 002a 4FF40012 		mov	r2, #2097152
ARM GAS  /tmp/cc9ZOIPt.s 			page 32


 1032 002e 5A61     		str	r2, [r3, #20]
 668:./STM32F4xx_HAL_Driver/Src/stm32f4xx_hal_rtc_ex.c **** }
 1033              		.loc 1 668 3 view .LVU362
 668:./STM32F4xx_HAL_Driver/Src/stm32f4xx_hal_rtc_ex.c **** }
 1034              		.loc 1 668 15 is_stmt 0 view .LVU363
 1035 0030 0123     		movs	r3, #1
 1036 0032 6377     		strb	r3, [r4, #29]
 669:./STM32F4xx_HAL_Driver/Src/stm32f4xx_hal_rtc_ex.c **** 
 1037              		.loc 1 669 1 view .LVU364
 1038 0034 10BD     		pop	{r4, pc}
 1039              	.LVL82:
 1040              	.L59:
 618:./STM32F4xx_HAL_Driver/Src/stm32f4xx_hal_rtc_ex.c **** #endif /* USE_HAL_RTC_REGISTER_CALLBACKS */
 1041              		.loc 1 618 7 is_stmt 1 view .LVU365
 1042 0036 FFF7FEFF 		bl	HAL_RTCEx_TimeStampEventCallback
 1043              	.LVL83:
 622:./STM32F4xx_HAL_Driver/Src/stm32f4xx_hal_rtc_ex.c ****     }
 1044              		.loc 1 622 7 view .LVU366
 1045 003a 2268     		ldr	r2, [r4]
 1046 003c D368     		ldr	r3, [r2, #12]
 1047 003e DBB2     		uxtb	r3, r3
 1048 0040 63F40863 		orn	r3, r3, #2176
 1049 0044 D360     		str	r3, [r2, #12]
 1050 0046 E6E7     		b	.L56
 1051              	.L60:
 636:./STM32F4xx_HAL_Driver/Src/stm32f4xx_hal_rtc_ex.c **** #endif /* USE_HAL_RTC_REGISTER_CALLBACKS */
 1052              		.loc 1 636 7 view .LVU367
 1053 0048 2046     		mov	r0, r4
 1054 004a FFF7FEFF 		bl	HAL_RTCEx_Tamper1EventCallback
 1055              	.LVL84:
 640:./STM32F4xx_HAL_Driver/Src/stm32f4xx_hal_rtc_ex.c ****     }
 1056              		.loc 1 640 7 view .LVU368
 1057 004e 2268     		ldr	r2, [r4]
 1058 0050 D368     		ldr	r3, [r2, #12]
 1059 0052 DBB2     		uxtb	r3, r3
 1060 0054 63F40253 		orn	r3, r3, #8320
 1061 0058 D360     		str	r3, [r2, #12]
 1062 005a E5E7     		b	.L57
 1063              	.L62:
 1064              		.align	2
 1065              	.L61:
 1066 005c 003C0140 		.word	1073822720
 1067              		.cfi_endproc
 1068              	.LFE223:
 1070              		.section	.text.HAL_RTCEx_PollForTimeStampEvent,"ax",%progbits
 1071              		.align	1
 1072              		.global	HAL_RTCEx_PollForTimeStampEvent
 1073              		.syntax unified
 1074              		.thumb
 1075              		.thumb_func
 1077              	HAL_RTCEx_PollForTimeStampEvent:
 1078              	.LVL85:
 1079              	.LFB226:
 702:./STM32F4xx_HAL_Driver/Src/stm32f4xx_hal_rtc_ex.c **** 
 703:./STM32F4xx_HAL_Driver/Src/stm32f4xx_hal_rtc_ex.c **** #if defined(RTC_TAMPER2_SUPPORT)
 704:./STM32F4xx_HAL_Driver/Src/stm32f4xx_hal_rtc_ex.c **** /**
 705:./STM32F4xx_HAL_Driver/Src/stm32f4xx_hal_rtc_ex.c ****   * @brief  Tamper 2 callback.
ARM GAS  /tmp/cc9ZOIPt.s 			page 33


 706:./STM32F4xx_HAL_Driver/Src/stm32f4xx_hal_rtc_ex.c ****   * @param  hrtc pointer to a RTC_HandleTypeDef structure that contains
 707:./STM32F4xx_HAL_Driver/Src/stm32f4xx_hal_rtc_ex.c ****   *                the configuration information for RTC.
 708:./STM32F4xx_HAL_Driver/Src/stm32f4xx_hal_rtc_ex.c ****   * @retval None
 709:./STM32F4xx_HAL_Driver/Src/stm32f4xx_hal_rtc_ex.c ****   */
 710:./STM32F4xx_HAL_Driver/Src/stm32f4xx_hal_rtc_ex.c **** __weak void HAL_RTCEx_Tamper2EventCallback(RTC_HandleTypeDef *hrtc)
 711:./STM32F4xx_HAL_Driver/Src/stm32f4xx_hal_rtc_ex.c **** {
 712:./STM32F4xx_HAL_Driver/Src/stm32f4xx_hal_rtc_ex.c ****   /* Prevent unused argument(s) compilation warning */
 713:./STM32F4xx_HAL_Driver/Src/stm32f4xx_hal_rtc_ex.c ****   UNUSED(hrtc);
 714:./STM32F4xx_HAL_Driver/Src/stm32f4xx_hal_rtc_ex.c **** 
 715:./STM32F4xx_HAL_Driver/Src/stm32f4xx_hal_rtc_ex.c ****   /* NOTE: This function should not be modified, when the callback is needed,
 716:./STM32F4xx_HAL_Driver/Src/stm32f4xx_hal_rtc_ex.c ****            the HAL_RTCEx_Tamper2EventCallback could be implemented in the user file
 717:./STM32F4xx_HAL_Driver/Src/stm32f4xx_hal_rtc_ex.c ****    */
 718:./STM32F4xx_HAL_Driver/Src/stm32f4xx_hal_rtc_ex.c **** }
 719:./STM32F4xx_HAL_Driver/Src/stm32f4xx_hal_rtc_ex.c **** #endif /* RTC_TAMPER2_SUPPORT */
 720:./STM32F4xx_HAL_Driver/Src/stm32f4xx_hal_rtc_ex.c **** 
 721:./STM32F4xx_HAL_Driver/Src/stm32f4xx_hal_rtc_ex.c **** /**
 722:./STM32F4xx_HAL_Driver/Src/stm32f4xx_hal_rtc_ex.c ****   * @brief  Handles Timestamp polling request.
 723:./STM32F4xx_HAL_Driver/Src/stm32f4xx_hal_rtc_ex.c ****   * @param  hrtc pointer to a RTC_HandleTypeDef structure that contains
 724:./STM32F4xx_HAL_Driver/Src/stm32f4xx_hal_rtc_ex.c ****   *                the configuration information for RTC.
 725:./STM32F4xx_HAL_Driver/Src/stm32f4xx_hal_rtc_ex.c ****   * @param  Timeout Timeout duration
 726:./STM32F4xx_HAL_Driver/Src/stm32f4xx_hal_rtc_ex.c ****   * @retval HAL status
 727:./STM32F4xx_HAL_Driver/Src/stm32f4xx_hal_rtc_ex.c ****   */
 728:./STM32F4xx_HAL_Driver/Src/stm32f4xx_hal_rtc_ex.c **** HAL_StatusTypeDef HAL_RTCEx_PollForTimeStampEvent(RTC_HandleTypeDef *hrtc, uint32_t Timeout)
 729:./STM32F4xx_HAL_Driver/Src/stm32f4xx_hal_rtc_ex.c **** {
 1080              		.loc 1 729 1 view -0
 1081              		.cfi_startproc
 1082              		@ args = 0, pretend = 0, frame = 0
 1083              		@ frame_needed = 0, uses_anonymous_args = 0
 1084              		.loc 1 729 1 is_stmt 0 view .LVU370
 1085 0000 70B5     		push	{r4, r5, r6, lr}
 1086              	.LCFI16:
 1087              		.cfi_def_cfa_offset 16
 1088              		.cfi_offset 4, -16
 1089              		.cfi_offset 5, -12
 1090              		.cfi_offset 6, -8
 1091              		.cfi_offset 14, -4
 1092 0002 0546     		mov	r5, r0
 1093 0004 0C46     		mov	r4, r1
 730:./STM32F4xx_HAL_Driver/Src/stm32f4xx_hal_rtc_ex.c ****   uint32_t tickstart = 0U;
 1094              		.loc 1 730 3 is_stmt 1 view .LVU371
 1095              	.LVL86:
 731:./STM32F4xx_HAL_Driver/Src/stm32f4xx_hal_rtc_ex.c **** 
 732:./STM32F4xx_HAL_Driver/Src/stm32f4xx_hal_rtc_ex.c ****   /* Get tick */
 733:./STM32F4xx_HAL_Driver/Src/stm32f4xx_hal_rtc_ex.c ****   tickstart = HAL_GetTick();
 1096              		.loc 1 733 3 view .LVU372
 1097              		.loc 1 733 15 is_stmt 0 view .LVU373
 1098 0006 FFF7FEFF 		bl	HAL_GetTick
 1099              	.LVL87:
 1100              		.loc 1 733 15 view .LVU374
 1101 000a 0646     		mov	r6, r0
 1102              	.LVL88:
 734:./STM32F4xx_HAL_Driver/Src/stm32f4xx_hal_rtc_ex.c **** 
 735:./STM32F4xx_HAL_Driver/Src/stm32f4xx_hal_rtc_ex.c ****   while (__HAL_RTC_TIMESTAMP_GET_FLAG(hrtc, RTC_FLAG_TSF) == 0U)
 1103              		.loc 1 735 3 is_stmt 1 view .LVU375
 1104              		.loc 1 735 9 is_stmt 0 view .LVU376
 1105 000c 04E0     		b	.L64
 1106              	.LVL89:
ARM GAS  /tmp/cc9ZOIPt.s 			page 34


 1107              	.L65:
 736:./STM32F4xx_HAL_Driver/Src/stm32f4xx_hal_rtc_ex.c ****   {
 737:./STM32F4xx_HAL_Driver/Src/stm32f4xx_hal_rtc_ex.c ****     if (Timeout != HAL_MAX_DELAY)
 738:./STM32F4xx_HAL_Driver/Src/stm32f4xx_hal_rtc_ex.c ****     {
 739:./STM32F4xx_HAL_Driver/Src/stm32f4xx_hal_rtc_ex.c ****       if ((Timeout == 0U) || ((HAL_GetTick() - tickstart) > Timeout))
 740:./STM32F4xx_HAL_Driver/Src/stm32f4xx_hal_rtc_ex.c ****       {
 741:./STM32F4xx_HAL_Driver/Src/stm32f4xx_hal_rtc_ex.c ****         hrtc->State = HAL_RTC_STATE_TIMEOUT;
 742:./STM32F4xx_HAL_Driver/Src/stm32f4xx_hal_rtc_ex.c ****         return HAL_TIMEOUT;
 743:./STM32F4xx_HAL_Driver/Src/stm32f4xx_hal_rtc_ex.c ****       }
 744:./STM32F4xx_HAL_Driver/Src/stm32f4xx_hal_rtc_ex.c ****     }
 745:./STM32F4xx_HAL_Driver/Src/stm32f4xx_hal_rtc_ex.c **** 
 746:./STM32F4xx_HAL_Driver/Src/stm32f4xx_hal_rtc_ex.c ****     if (__HAL_RTC_TIMESTAMP_GET_FLAG(hrtc, RTC_FLAG_TSOVF) != 0U)
 1108              		.loc 1 746 5 is_stmt 1 view .LVU377
 1109              		.loc 1 746 9 is_stmt 0 view .LVU378
 1110 000e 2B68     		ldr	r3, [r5]
 1111 0010 DA68     		ldr	r2, [r3, #12]
 1112              		.loc 1 746 8 view .LVU379
 1113 0012 12F4805F 		tst	r2, #4096
 1114 0016 10D1     		bne	.L70
 1115              	.L64:
 735:./STM32F4xx_HAL_Driver/Src/stm32f4xx_hal_rtc_ex.c ****   {
 1116              		.loc 1 735 59 is_stmt 1 view .LVU380
 735:./STM32F4xx_HAL_Driver/Src/stm32f4xx_hal_rtc_ex.c ****   {
 1117              		.loc 1 735 10 is_stmt 0 view .LVU381
 1118 0018 2B68     		ldr	r3, [r5]
 1119 001a DB68     		ldr	r3, [r3, #12]
 735:./STM32F4xx_HAL_Driver/Src/stm32f4xx_hal_rtc_ex.c ****   {
 1120              		.loc 1 735 59 view .LVU382
 1121 001c 13F4006F 		tst	r3, #2048
 1122 0020 14D1     		bne	.L71
 737:./STM32F4xx_HAL_Driver/Src/stm32f4xx_hal_rtc_ex.c ****     {
 1123              		.loc 1 737 5 is_stmt 1 view .LVU383
 737:./STM32F4xx_HAL_Driver/Src/stm32f4xx_hal_rtc_ex.c ****     {
 1124              		.loc 1 737 8 is_stmt 0 view .LVU384
 1125 0022 B4F1FF3F 		cmp	r4, #-1
 1126 0026 F2D0     		beq	.L65
 739:./STM32F4xx_HAL_Driver/Src/stm32f4xx_hal_rtc_ex.c ****       {
 1127              		.loc 1 739 7 is_stmt 1 view .LVU385
 739:./STM32F4xx_HAL_Driver/Src/stm32f4xx_hal_rtc_ex.c ****       {
 1128              		.loc 1 739 10 is_stmt 0 view .LVU386
 1129 0028 24B1     		cbz	r4, .L66
 739:./STM32F4xx_HAL_Driver/Src/stm32f4xx_hal_rtc_ex.c ****       {
 1130              		.loc 1 739 32 discriminator 1 view .LVU387
 1131 002a FFF7FEFF 		bl	HAL_GetTick
 1132              	.LVL90:
 739:./STM32F4xx_HAL_Driver/Src/stm32f4xx_hal_rtc_ex.c ****       {
 1133              		.loc 1 739 46 discriminator 1 view .LVU388
 1134 002e 831B     		subs	r3, r0, r6
 739:./STM32F4xx_HAL_Driver/Src/stm32f4xx_hal_rtc_ex.c ****       {
 1135              		.loc 1 739 27 discriminator 1 view .LVU389
 1136 0030 A342     		cmp	r3, r4
 1137 0032 ECD9     		bls	.L65
 1138              	.L66:
 741:./STM32F4xx_HAL_Driver/Src/stm32f4xx_hal_rtc_ex.c ****         return HAL_TIMEOUT;
 1139              		.loc 1 741 9 is_stmt 1 view .LVU390
 741:./STM32F4xx_HAL_Driver/Src/stm32f4xx_hal_rtc_ex.c ****         return HAL_TIMEOUT;
 1140              		.loc 1 741 21 is_stmt 0 view .LVU391
ARM GAS  /tmp/cc9ZOIPt.s 			page 35


 1141 0034 0320     		movs	r0, #3
 1142 0036 6877     		strb	r0, [r5, #29]
 742:./STM32F4xx_HAL_Driver/Src/stm32f4xx_hal_rtc_ex.c ****       }
 1143              		.loc 1 742 9 is_stmt 1 view .LVU392
 1144              	.L67:
 747:./STM32F4xx_HAL_Driver/Src/stm32f4xx_hal_rtc_ex.c ****     {
 748:./STM32F4xx_HAL_Driver/Src/stm32f4xx_hal_rtc_ex.c ****       /* Clear the Timestamp Overrun Flag */
 749:./STM32F4xx_HAL_Driver/Src/stm32f4xx_hal_rtc_ex.c ****       __HAL_RTC_TIMESTAMP_CLEAR_FLAG(hrtc, RTC_FLAG_TSOVF);
 750:./STM32F4xx_HAL_Driver/Src/stm32f4xx_hal_rtc_ex.c **** 
 751:./STM32F4xx_HAL_Driver/Src/stm32f4xx_hal_rtc_ex.c ****       /* Change Timestamp state */
 752:./STM32F4xx_HAL_Driver/Src/stm32f4xx_hal_rtc_ex.c ****       hrtc->State = HAL_RTC_STATE_ERROR;
 753:./STM32F4xx_HAL_Driver/Src/stm32f4xx_hal_rtc_ex.c **** 
 754:./STM32F4xx_HAL_Driver/Src/stm32f4xx_hal_rtc_ex.c ****       return HAL_ERROR;
 755:./STM32F4xx_HAL_Driver/Src/stm32f4xx_hal_rtc_ex.c ****     }
 756:./STM32F4xx_HAL_Driver/Src/stm32f4xx_hal_rtc_ex.c ****   }
 757:./STM32F4xx_HAL_Driver/Src/stm32f4xx_hal_rtc_ex.c **** 
 758:./STM32F4xx_HAL_Driver/Src/stm32f4xx_hal_rtc_ex.c ****   /* Change RTC state */
 759:./STM32F4xx_HAL_Driver/Src/stm32f4xx_hal_rtc_ex.c ****   hrtc->State = HAL_RTC_STATE_READY;
 760:./STM32F4xx_HAL_Driver/Src/stm32f4xx_hal_rtc_ex.c **** 
 761:./STM32F4xx_HAL_Driver/Src/stm32f4xx_hal_rtc_ex.c ****   return HAL_OK;
 762:./STM32F4xx_HAL_Driver/Src/stm32f4xx_hal_rtc_ex.c **** }
 1145              		.loc 1 762 1 is_stmt 0 view .LVU393
 1146 0038 70BD     		pop	{r4, r5, r6, pc}
 1147              	.LVL91:
 1148              	.L70:
 749:./STM32F4xx_HAL_Driver/Src/stm32f4xx_hal_rtc_ex.c **** 
 1149              		.loc 1 749 7 is_stmt 1 view .LVU394
 1150 003a DA68     		ldr	r2, [r3, #12]
 1151 003c D2B2     		uxtb	r2, r2
 1152 003e 62F48452 		orn	r2, r2, #4224
 1153 0042 DA60     		str	r2, [r3, #12]
 752:./STM32F4xx_HAL_Driver/Src/stm32f4xx_hal_rtc_ex.c **** 
 1154              		.loc 1 752 7 view .LVU395
 752:./STM32F4xx_HAL_Driver/Src/stm32f4xx_hal_rtc_ex.c **** 
 1155              		.loc 1 752 19 is_stmt 0 view .LVU396
 1156 0044 0423     		movs	r3, #4
 1157 0046 6B77     		strb	r3, [r5, #29]
 754:./STM32F4xx_HAL_Driver/Src/stm32f4xx_hal_rtc_ex.c ****     }
 1158              		.loc 1 754 7 is_stmt 1 view .LVU397
 754:./STM32F4xx_HAL_Driver/Src/stm32f4xx_hal_rtc_ex.c ****     }
 1159              		.loc 1 754 14 is_stmt 0 view .LVU398
 1160 0048 0120     		movs	r0, #1
 1161 004a F5E7     		b	.L67
 1162              	.L71:
 759:./STM32F4xx_HAL_Driver/Src/stm32f4xx_hal_rtc_ex.c **** 
 1163              		.loc 1 759 3 is_stmt 1 view .LVU399
 759:./STM32F4xx_HAL_Driver/Src/stm32f4xx_hal_rtc_ex.c **** 
 1164              		.loc 1 759 15 is_stmt 0 view .LVU400
 1165 004c 0123     		movs	r3, #1
 1166 004e 6B77     		strb	r3, [r5, #29]
 761:./STM32F4xx_HAL_Driver/Src/stm32f4xx_hal_rtc_ex.c **** }
 1167              		.loc 1 761 3 is_stmt 1 view .LVU401
 761:./STM32F4xx_HAL_Driver/Src/stm32f4xx_hal_rtc_ex.c **** }
 1168              		.loc 1 761 10 is_stmt 0 view .LVU402
 1169 0050 0020     		movs	r0, #0
 1170 0052 F1E7     		b	.L67
 1171              		.cfi_endproc
ARM GAS  /tmp/cc9ZOIPt.s 			page 36


 1172              	.LFE226:
 1174              		.section	.text.HAL_RTCEx_PollForTamper1Event,"ax",%progbits
 1175              		.align	1
 1176              		.global	HAL_RTCEx_PollForTamper1Event
 1177              		.syntax unified
 1178              		.thumb
 1179              		.thumb_func
 1181              	HAL_RTCEx_PollForTamper1Event:
 1182              	.LVL92:
 1183              	.LFB227:
 763:./STM32F4xx_HAL_Driver/Src/stm32f4xx_hal_rtc_ex.c **** 
 764:./STM32F4xx_HAL_Driver/Src/stm32f4xx_hal_rtc_ex.c **** /**
 765:./STM32F4xx_HAL_Driver/Src/stm32f4xx_hal_rtc_ex.c ****   * @brief  Handles Tamper 1 Polling.
 766:./STM32F4xx_HAL_Driver/Src/stm32f4xx_hal_rtc_ex.c ****   * @param  hrtc pointer to a RTC_HandleTypeDef structure that contains
 767:./STM32F4xx_HAL_Driver/Src/stm32f4xx_hal_rtc_ex.c ****   *                the configuration information for RTC.
 768:./STM32F4xx_HAL_Driver/Src/stm32f4xx_hal_rtc_ex.c ****   * @param  Timeout Timeout duration
 769:./STM32F4xx_HAL_Driver/Src/stm32f4xx_hal_rtc_ex.c ****   * @retval HAL status
 770:./STM32F4xx_HAL_Driver/Src/stm32f4xx_hal_rtc_ex.c ****   */
 771:./STM32F4xx_HAL_Driver/Src/stm32f4xx_hal_rtc_ex.c **** HAL_StatusTypeDef HAL_RTCEx_PollForTamper1Event(RTC_HandleTypeDef *hrtc, uint32_t Timeout)
 772:./STM32F4xx_HAL_Driver/Src/stm32f4xx_hal_rtc_ex.c **** {
 1184              		.loc 1 772 1 is_stmt 1 view -0
 1185              		.cfi_startproc
 1186              		@ args = 0, pretend = 0, frame = 0
 1187              		@ frame_needed = 0, uses_anonymous_args = 0
 1188              		.loc 1 772 1 is_stmt 0 view .LVU404
 1189 0000 70B5     		push	{r4, r5, r6, lr}
 1190              	.LCFI17:
 1191              		.cfi_def_cfa_offset 16
 1192              		.cfi_offset 4, -16
 1193              		.cfi_offset 5, -12
 1194              		.cfi_offset 6, -8
 1195              		.cfi_offset 14, -4
 1196 0002 0446     		mov	r4, r0
 1197 0004 0D46     		mov	r5, r1
 773:./STM32F4xx_HAL_Driver/Src/stm32f4xx_hal_rtc_ex.c ****   uint32_t tickstart = 0U;
 1198              		.loc 1 773 3 is_stmt 1 view .LVU405
 1199              	.LVL93:
 774:./STM32F4xx_HAL_Driver/Src/stm32f4xx_hal_rtc_ex.c **** 
 775:./STM32F4xx_HAL_Driver/Src/stm32f4xx_hal_rtc_ex.c ****   /* Get tick */
 776:./STM32F4xx_HAL_Driver/Src/stm32f4xx_hal_rtc_ex.c ****   tickstart = HAL_GetTick();
 1200              		.loc 1 776 3 view .LVU406
 1201              		.loc 1 776 15 is_stmt 0 view .LVU407
 1202 0006 FFF7FEFF 		bl	HAL_GetTick
 1203              	.LVL94:
 1204              		.loc 1 776 15 view .LVU408
 1205 000a 0646     		mov	r6, r0
 1206              	.LVL95:
 777:./STM32F4xx_HAL_Driver/Src/stm32f4xx_hal_rtc_ex.c **** 
 778:./STM32F4xx_HAL_Driver/Src/stm32f4xx_hal_rtc_ex.c ****   /* Get the status of the Interrupt */
 779:./STM32F4xx_HAL_Driver/Src/stm32f4xx_hal_rtc_ex.c ****   while (__HAL_RTC_TAMPER_GET_FLAG(hrtc, RTC_FLAG_TAMP1F) == 0U)
 1207              		.loc 1 779 3 is_stmt 1 view .LVU409
 1208              	.L74:
 1209              		.loc 1 779 59 view .LVU410
 1210              		.loc 1 779 10 is_stmt 0 view .LVU411
 1211 000c 2368     		ldr	r3, [r4]
 1212 000e DA68     		ldr	r2, [r3, #12]
 1213              		.loc 1 779 59 view .LVU412
ARM GAS  /tmp/cc9ZOIPt.s 			page 37


 1214 0010 12F4005F 		tst	r2, #8192
 1215 0014 0BD1     		bne	.L79
 780:./STM32F4xx_HAL_Driver/Src/stm32f4xx_hal_rtc_ex.c ****   {
 781:./STM32F4xx_HAL_Driver/Src/stm32f4xx_hal_rtc_ex.c ****     if (Timeout != HAL_MAX_DELAY)
 1216              		.loc 1 781 5 is_stmt 1 view .LVU413
 1217              		.loc 1 781 8 is_stmt 0 view .LVU414
 1218 0016 B5F1FF3F 		cmp	r5, #-1
 1219 001a F7D0     		beq	.L74
 782:./STM32F4xx_HAL_Driver/Src/stm32f4xx_hal_rtc_ex.c ****     {
 783:./STM32F4xx_HAL_Driver/Src/stm32f4xx_hal_rtc_ex.c ****       if ((Timeout == 0U) || ((HAL_GetTick() - tickstart) > Timeout))
 1220              		.loc 1 783 7 is_stmt 1 view .LVU415
 1221              		.loc 1 783 10 is_stmt 0 view .LVU416
 1222 001c 25B1     		cbz	r5, .L75
 1223              		.loc 1 783 32 discriminator 1 view .LVU417
 1224 001e FFF7FEFF 		bl	HAL_GetTick
 1225              	.LVL96:
 1226              		.loc 1 783 46 discriminator 1 view .LVU418
 1227 0022 801B     		subs	r0, r0, r6
 1228              		.loc 1 783 27 discriminator 1 view .LVU419
 1229 0024 A842     		cmp	r0, r5
 1230 0026 F1D9     		bls	.L74
 1231              	.L75:
 784:./STM32F4xx_HAL_Driver/Src/stm32f4xx_hal_rtc_ex.c ****       {
 785:./STM32F4xx_HAL_Driver/Src/stm32f4xx_hal_rtc_ex.c ****         hrtc->State = HAL_RTC_STATE_TIMEOUT;
 1232              		.loc 1 785 9 is_stmt 1 view .LVU420
 1233              		.loc 1 785 21 is_stmt 0 view .LVU421
 1234 0028 0320     		movs	r0, #3
 1235 002a 6077     		strb	r0, [r4, #29]
 786:./STM32F4xx_HAL_Driver/Src/stm32f4xx_hal_rtc_ex.c ****         return HAL_TIMEOUT;
 1236              		.loc 1 786 9 is_stmt 1 view .LVU422
 1237              		.loc 1 786 16 is_stmt 0 view .LVU423
 1238 002c 07E0     		b	.L76
 1239              	.L79:
 787:./STM32F4xx_HAL_Driver/Src/stm32f4xx_hal_rtc_ex.c ****       }
 788:./STM32F4xx_HAL_Driver/Src/stm32f4xx_hal_rtc_ex.c ****     }
 789:./STM32F4xx_HAL_Driver/Src/stm32f4xx_hal_rtc_ex.c ****   }
 790:./STM32F4xx_HAL_Driver/Src/stm32f4xx_hal_rtc_ex.c **** 
 791:./STM32F4xx_HAL_Driver/Src/stm32f4xx_hal_rtc_ex.c ****   /* Clear the Tamper Flag */
 792:./STM32F4xx_HAL_Driver/Src/stm32f4xx_hal_rtc_ex.c ****   __HAL_RTC_TAMPER_CLEAR_FLAG(hrtc, RTC_FLAG_TAMP1F);
 1240              		.loc 1 792 3 is_stmt 1 view .LVU424
 1241 002e DA68     		ldr	r2, [r3, #12]
 1242 0030 D2B2     		uxtb	r2, r2
 1243 0032 62F40252 		orn	r2, r2, #8320
 1244 0036 DA60     		str	r2, [r3, #12]
 793:./STM32F4xx_HAL_Driver/Src/stm32f4xx_hal_rtc_ex.c **** 
 794:./STM32F4xx_HAL_Driver/Src/stm32f4xx_hal_rtc_ex.c ****   /* Change RTC state */
 795:./STM32F4xx_HAL_Driver/Src/stm32f4xx_hal_rtc_ex.c ****   hrtc->State = HAL_RTC_STATE_READY;
 1245              		.loc 1 795 3 view .LVU425
 1246              		.loc 1 795 15 is_stmt 0 view .LVU426
 1247 0038 0123     		movs	r3, #1
 1248 003a 6377     		strb	r3, [r4, #29]
 796:./STM32F4xx_HAL_Driver/Src/stm32f4xx_hal_rtc_ex.c **** 
 797:./STM32F4xx_HAL_Driver/Src/stm32f4xx_hal_rtc_ex.c ****   return HAL_OK;
 1249              		.loc 1 797 3 is_stmt 1 view .LVU427
 1250              		.loc 1 797 10 is_stmt 0 view .LVU428
 1251 003c 0020     		movs	r0, #0
 1252              	.L76:
ARM GAS  /tmp/cc9ZOIPt.s 			page 38


 798:./STM32F4xx_HAL_Driver/Src/stm32f4xx_hal_rtc_ex.c **** }
 1253              		.loc 1 798 1 view .LVU429
 1254 003e 70BD     		pop	{r4, r5, r6, pc}
 1255              		.loc 1 798 1 view .LVU430
 1256              		.cfi_endproc
 1257              	.LFE227:
 1259              		.section	.text.HAL_RTCEx_SetWakeUpTimer,"ax",%progbits
 1260              		.align	1
 1261              		.global	HAL_RTCEx_SetWakeUpTimer
 1262              		.syntax unified
 1263              		.thumb
 1264              		.thumb_func
 1266              	HAL_RTCEx_SetWakeUpTimer:
 1267              	.LVL97:
 1268              	.LFB228:
 799:./STM32F4xx_HAL_Driver/Src/stm32f4xx_hal_rtc_ex.c **** 
 800:./STM32F4xx_HAL_Driver/Src/stm32f4xx_hal_rtc_ex.c **** #if defined(RTC_TAMPER2_SUPPORT)
 801:./STM32F4xx_HAL_Driver/Src/stm32f4xx_hal_rtc_ex.c **** /**
 802:./STM32F4xx_HAL_Driver/Src/stm32f4xx_hal_rtc_ex.c ****   * @brief  Handles Tamper 2 Polling.
 803:./STM32F4xx_HAL_Driver/Src/stm32f4xx_hal_rtc_ex.c ****   * @param  hrtc pointer to a RTC_HandleTypeDef structure that contains
 804:./STM32F4xx_HAL_Driver/Src/stm32f4xx_hal_rtc_ex.c ****   *                the configuration information for RTC.
 805:./STM32F4xx_HAL_Driver/Src/stm32f4xx_hal_rtc_ex.c ****   * @param  Timeout Timeout duration
 806:./STM32F4xx_HAL_Driver/Src/stm32f4xx_hal_rtc_ex.c ****   * @retval HAL status
 807:./STM32F4xx_HAL_Driver/Src/stm32f4xx_hal_rtc_ex.c ****   */
 808:./STM32F4xx_HAL_Driver/Src/stm32f4xx_hal_rtc_ex.c **** HAL_StatusTypeDef HAL_RTCEx_PollForTamper2Event(RTC_HandleTypeDef *hrtc, uint32_t Timeout)
 809:./STM32F4xx_HAL_Driver/Src/stm32f4xx_hal_rtc_ex.c **** {
 810:./STM32F4xx_HAL_Driver/Src/stm32f4xx_hal_rtc_ex.c ****   uint32_t tickstart = 0U;
 811:./STM32F4xx_HAL_Driver/Src/stm32f4xx_hal_rtc_ex.c **** 
 812:./STM32F4xx_HAL_Driver/Src/stm32f4xx_hal_rtc_ex.c ****   /* Get tick */
 813:./STM32F4xx_HAL_Driver/Src/stm32f4xx_hal_rtc_ex.c ****   tickstart = HAL_GetTick();
 814:./STM32F4xx_HAL_Driver/Src/stm32f4xx_hal_rtc_ex.c **** 
 815:./STM32F4xx_HAL_Driver/Src/stm32f4xx_hal_rtc_ex.c ****   /* Get the status of the Interrupt */
 816:./STM32F4xx_HAL_Driver/Src/stm32f4xx_hal_rtc_ex.c ****   while (__HAL_RTC_TAMPER_GET_FLAG(hrtc, RTC_FLAG_TAMP2F) == 0U)
 817:./STM32F4xx_HAL_Driver/Src/stm32f4xx_hal_rtc_ex.c ****   {
 818:./STM32F4xx_HAL_Driver/Src/stm32f4xx_hal_rtc_ex.c ****     if (Timeout != HAL_MAX_DELAY)
 819:./STM32F4xx_HAL_Driver/Src/stm32f4xx_hal_rtc_ex.c ****     {
 820:./STM32F4xx_HAL_Driver/Src/stm32f4xx_hal_rtc_ex.c ****       if ((Timeout == 0U) || ((HAL_GetTick() - tickstart) > Timeout))
 821:./STM32F4xx_HAL_Driver/Src/stm32f4xx_hal_rtc_ex.c ****       {
 822:./STM32F4xx_HAL_Driver/Src/stm32f4xx_hal_rtc_ex.c ****         hrtc->State = HAL_RTC_STATE_TIMEOUT;
 823:./STM32F4xx_HAL_Driver/Src/stm32f4xx_hal_rtc_ex.c ****         return HAL_TIMEOUT;
 824:./STM32F4xx_HAL_Driver/Src/stm32f4xx_hal_rtc_ex.c ****       }
 825:./STM32F4xx_HAL_Driver/Src/stm32f4xx_hal_rtc_ex.c ****     }
 826:./STM32F4xx_HAL_Driver/Src/stm32f4xx_hal_rtc_ex.c ****   }
 827:./STM32F4xx_HAL_Driver/Src/stm32f4xx_hal_rtc_ex.c **** 
 828:./STM32F4xx_HAL_Driver/Src/stm32f4xx_hal_rtc_ex.c ****   /* Clear the Tamper Flag */
 829:./STM32F4xx_HAL_Driver/Src/stm32f4xx_hal_rtc_ex.c ****   __HAL_RTC_TAMPER_CLEAR_FLAG(hrtc, RTC_FLAG_TAMP2F);
 830:./STM32F4xx_HAL_Driver/Src/stm32f4xx_hal_rtc_ex.c **** 
 831:./STM32F4xx_HAL_Driver/Src/stm32f4xx_hal_rtc_ex.c ****   /* Change RTC state */
 832:./STM32F4xx_HAL_Driver/Src/stm32f4xx_hal_rtc_ex.c ****   hrtc->State = HAL_RTC_STATE_READY;
 833:./STM32F4xx_HAL_Driver/Src/stm32f4xx_hal_rtc_ex.c **** 
 834:./STM32F4xx_HAL_Driver/Src/stm32f4xx_hal_rtc_ex.c ****   return HAL_OK;
 835:./STM32F4xx_HAL_Driver/Src/stm32f4xx_hal_rtc_ex.c **** }
 836:./STM32F4xx_HAL_Driver/Src/stm32f4xx_hal_rtc_ex.c **** #endif /* RTC_TAMPER2_SUPPORT */
 837:./STM32F4xx_HAL_Driver/Src/stm32f4xx_hal_rtc_ex.c **** 
 838:./STM32F4xx_HAL_Driver/Src/stm32f4xx_hal_rtc_ex.c **** /**
 839:./STM32F4xx_HAL_Driver/Src/stm32f4xx_hal_rtc_ex.c ****   * @}
 840:./STM32F4xx_HAL_Driver/Src/stm32f4xx_hal_rtc_ex.c ****   */
ARM GAS  /tmp/cc9ZOIPt.s 			page 39


 841:./STM32F4xx_HAL_Driver/Src/stm32f4xx_hal_rtc_ex.c **** 
 842:./STM32F4xx_HAL_Driver/Src/stm32f4xx_hal_rtc_ex.c **** /** @defgroup RTCEx_Exported_Functions_Group2 RTC Wakeup functions
 843:./STM32F4xx_HAL_Driver/Src/stm32f4xx_hal_rtc_ex.c ****   * @brief    RTC Wakeup functions
 844:./STM32F4xx_HAL_Driver/Src/stm32f4xx_hal_rtc_ex.c ****   *
 845:./STM32F4xx_HAL_Driver/Src/stm32f4xx_hal_rtc_ex.c **** @verbatim
 846:./STM32F4xx_HAL_Driver/Src/stm32f4xx_hal_rtc_ex.c ****  ===============================================================================
 847:./STM32F4xx_HAL_Driver/Src/stm32f4xx_hal_rtc_ex.c ****                         ##### RTC Wakeup functions #####
 848:./STM32F4xx_HAL_Driver/Src/stm32f4xx_hal_rtc_ex.c ****  ===============================================================================
 849:./STM32F4xx_HAL_Driver/Src/stm32f4xx_hal_rtc_ex.c **** 
 850:./STM32F4xx_HAL_Driver/Src/stm32f4xx_hal_rtc_ex.c ****  [..] This section provides functions allowing to configure Wakeup feature
 851:./STM32F4xx_HAL_Driver/Src/stm32f4xx_hal_rtc_ex.c **** 
 852:./STM32F4xx_HAL_Driver/Src/stm32f4xx_hal_rtc_ex.c **** @endverbatim
 853:./STM32F4xx_HAL_Driver/Src/stm32f4xx_hal_rtc_ex.c ****   * @{
 854:./STM32F4xx_HAL_Driver/Src/stm32f4xx_hal_rtc_ex.c ****   */
 855:./STM32F4xx_HAL_Driver/Src/stm32f4xx_hal_rtc_ex.c **** 
 856:./STM32F4xx_HAL_Driver/Src/stm32f4xx_hal_rtc_ex.c **** /**
 857:./STM32F4xx_HAL_Driver/Src/stm32f4xx_hal_rtc_ex.c ****   * @brief  Sets wakeup timer.
 858:./STM32F4xx_HAL_Driver/Src/stm32f4xx_hal_rtc_ex.c ****   * @param  hrtc pointer to a RTC_HandleTypeDef structure that contains
 859:./STM32F4xx_HAL_Driver/Src/stm32f4xx_hal_rtc_ex.c ****   *                the configuration information for RTC.
 860:./STM32F4xx_HAL_Driver/Src/stm32f4xx_hal_rtc_ex.c ****   * @param  WakeUpCounter Wakeup counter
 861:./STM32F4xx_HAL_Driver/Src/stm32f4xx_hal_rtc_ex.c ****   * @param  WakeUpClock Wakeup clock
 862:./STM32F4xx_HAL_Driver/Src/stm32f4xx_hal_rtc_ex.c ****   * @retval HAL status
 863:./STM32F4xx_HAL_Driver/Src/stm32f4xx_hal_rtc_ex.c ****   */
 864:./STM32F4xx_HAL_Driver/Src/stm32f4xx_hal_rtc_ex.c **** HAL_StatusTypeDef HAL_RTCEx_SetWakeUpTimer(RTC_HandleTypeDef *hrtc, uint32_t WakeUpCounter, uint32_
 865:./STM32F4xx_HAL_Driver/Src/stm32f4xx_hal_rtc_ex.c **** {
 1269              		.loc 1 865 1 is_stmt 1 view -0
 1270              		.cfi_startproc
 1271              		@ args = 0, pretend = 0, frame = 0
 1272              		@ frame_needed = 0, uses_anonymous_args = 0
 1273              		.loc 1 865 1 is_stmt 0 view .LVU432
 1274 0000 F8B5     		push	{r3, r4, r5, r6, r7, lr}
 1275              	.LCFI18:
 1276              		.cfi_def_cfa_offset 24
 1277              		.cfi_offset 3, -24
 1278              		.cfi_offset 4, -20
 1279              		.cfi_offset 5, -16
 1280              		.cfi_offset 6, -12
 1281              		.cfi_offset 7, -8
 1282              		.cfi_offset 14, -4
 866:./STM32F4xx_HAL_Driver/Src/stm32f4xx_hal_rtc_ex.c ****   uint32_t tickstart = 0U;
 1283              		.loc 1 866 3 is_stmt 1 view .LVU433
 1284              	.LVL98:
 867:./STM32F4xx_HAL_Driver/Src/stm32f4xx_hal_rtc_ex.c **** 
 868:./STM32F4xx_HAL_Driver/Src/stm32f4xx_hal_rtc_ex.c ****   /* Check the parameters */
 869:./STM32F4xx_HAL_Driver/Src/stm32f4xx_hal_rtc_ex.c ****   assert_param(IS_RTC_WAKEUP_CLOCK(WakeUpClock));
 1285              		.loc 1 869 3 view .LVU434
 870:./STM32F4xx_HAL_Driver/Src/stm32f4xx_hal_rtc_ex.c ****   assert_param(IS_RTC_WAKEUP_COUNTER(WakeUpCounter));
 1286              		.loc 1 870 3 view .LVU435
 871:./STM32F4xx_HAL_Driver/Src/stm32f4xx_hal_rtc_ex.c **** 
 872:./STM32F4xx_HAL_Driver/Src/stm32f4xx_hal_rtc_ex.c ****   /* Process Locked */
 873:./STM32F4xx_HAL_Driver/Src/stm32f4xx_hal_rtc_ex.c ****   __HAL_LOCK(hrtc);
 1287              		.loc 1 873 3 view .LVU436
 1288              		.loc 1 873 3 view .LVU437
 1289 0002 037F     		ldrb	r3, [r0, #28]	@ zero_extendqisi2
 1290 0004 012B     		cmp	r3, #1
 1291 0006 5FD0     		beq	.L87
 1292 0008 0446     		mov	r4, r0
ARM GAS  /tmp/cc9ZOIPt.s 			page 40


 1293 000a 0D46     		mov	r5, r1
 1294 000c 1646     		mov	r6, r2
 1295              		.loc 1 873 3 discriminator 2 view .LVU438
 1296 000e 0123     		movs	r3, #1
 1297 0010 0377     		strb	r3, [r0, #28]
 1298              		.loc 1 873 3 discriminator 2 view .LVU439
 874:./STM32F4xx_HAL_Driver/Src/stm32f4xx_hal_rtc_ex.c **** 
 875:./STM32F4xx_HAL_Driver/Src/stm32f4xx_hal_rtc_ex.c ****   hrtc->State = HAL_RTC_STATE_BUSY;
 1299              		.loc 1 875 3 discriminator 2 view .LVU440
 1300              		.loc 1 875 15 is_stmt 0 discriminator 2 view .LVU441
 1301 0012 0223     		movs	r3, #2
 1302 0014 4377     		strb	r3, [r0, #29]
 876:./STM32F4xx_HAL_Driver/Src/stm32f4xx_hal_rtc_ex.c **** 
 877:./STM32F4xx_HAL_Driver/Src/stm32f4xx_hal_rtc_ex.c ****   /* Disable the write protection for RTC registers */
 878:./STM32F4xx_HAL_Driver/Src/stm32f4xx_hal_rtc_ex.c ****   __HAL_RTC_WRITEPROTECTION_DISABLE(hrtc);
 1303              		.loc 1 878 3 is_stmt 1 discriminator 2 view .LVU442
 1304              		.loc 1 878 3 discriminator 2 view .LVU443
 1305 0016 0368     		ldr	r3, [r0]
 1306 0018 CA22     		movs	r2, #202
 1307              	.LVL99:
 1308              		.loc 1 878 3 is_stmt 0 discriminator 2 view .LVU444
 1309 001a 5A62     		str	r2, [r3, #36]
 1310              		.loc 1 878 3 is_stmt 1 discriminator 2 view .LVU445
 1311 001c 0368     		ldr	r3, [r0]
 1312 001e 5322     		movs	r2, #83
 1313 0020 5A62     		str	r2, [r3, #36]
 1314              		.loc 1 878 3 discriminator 2 view .LVU446
 879:./STM32F4xx_HAL_Driver/Src/stm32f4xx_hal_rtc_ex.c **** 
 880:./STM32F4xx_HAL_Driver/Src/stm32f4xx_hal_rtc_ex.c ****   /* Check RTC WUTWF flag is reset only when wakeup timer enabled*/
 881:./STM32F4xx_HAL_Driver/Src/stm32f4xx_hal_rtc_ex.c ****   if ((hrtc->Instance->CR & RTC_CR_WUTE) != 0U)
 1315              		.loc 1 881 3 discriminator 2 view .LVU447
 1316              		.loc 1 881 12 is_stmt 0 discriminator 2 view .LVU448
 1317 0022 0368     		ldr	r3, [r0]
 1318              		.loc 1 881 22 discriminator 2 view .LVU449
 1319 0024 9B68     		ldr	r3, [r3, #8]
 1320              		.loc 1 881 6 discriminator 2 view .LVU450
 1321 0026 13F4806F 		tst	r3, #1024
 1322 002a 15D0     		beq	.L82
 882:./STM32F4xx_HAL_Driver/Src/stm32f4xx_hal_rtc_ex.c ****   {
 883:./STM32F4xx_HAL_Driver/Src/stm32f4xx_hal_rtc_ex.c ****     tickstart = HAL_GetTick();
 1323              		.loc 1 883 5 is_stmt 1 view .LVU451
 1324              		.loc 1 883 17 is_stmt 0 view .LVU452
 1325 002c FFF7FEFF 		bl	HAL_GetTick
 1326              	.LVL100:
 1327              		.loc 1 883 17 view .LVU453
 1328 0030 0746     		mov	r7, r0
 1329              	.LVL101:
 884:./STM32F4xx_HAL_Driver/Src/stm32f4xx_hal_rtc_ex.c **** 
 885:./STM32F4xx_HAL_Driver/Src/stm32f4xx_hal_rtc_ex.c ****     /* Wait till RTC WUTWF flag is reset and if timeout is reached exit */
 886:./STM32F4xx_HAL_Driver/Src/stm32f4xx_hal_rtc_ex.c ****     while (__HAL_RTC_WAKEUPTIMER_GET_FLAG(hrtc, RTC_FLAG_WUTWF) != 0U)
 1330              		.loc 1 886 5 is_stmt 1 view .LVU454
 1331              	.L83:
 1332              		.loc 1 886 65 view .LVU455
 1333              		.loc 1 886 12 is_stmt 0 view .LVU456
 1334 0032 2368     		ldr	r3, [r4]
 1335 0034 DB68     		ldr	r3, [r3, #12]
 1336              		.loc 1 886 65 view .LVU457
ARM GAS  /tmp/cc9ZOIPt.s 			page 41


 1337 0036 13F0040F 		tst	r3, #4
 1338 003a 0DD0     		beq	.L82
 887:./STM32F4xx_HAL_Driver/Src/stm32f4xx_hal_rtc_ex.c ****     {
 888:./STM32F4xx_HAL_Driver/Src/stm32f4xx_hal_rtc_ex.c ****       if ((HAL_GetTick() - tickstart) > RTC_TIMEOUT_VALUE)
 1339              		.loc 1 888 7 is_stmt 1 view .LVU458
 1340              		.loc 1 888 12 is_stmt 0 view .LVU459
 1341 003c FFF7FEFF 		bl	HAL_GetTick
 1342              	.LVL102:
 1343              		.loc 1 888 26 view .LVU460
 1344 0040 C01B     		subs	r0, r0, r7
 1345              		.loc 1 888 10 view .LVU461
 1346 0042 B0F57A7F 		cmp	r0, #1000
 1347 0046 F4D9     		bls	.L83
 889:./STM32F4xx_HAL_Driver/Src/stm32f4xx_hal_rtc_ex.c ****       {
 890:./STM32F4xx_HAL_Driver/Src/stm32f4xx_hal_rtc_ex.c ****         /* Enable the write protection for RTC registers */
 891:./STM32F4xx_HAL_Driver/Src/stm32f4xx_hal_rtc_ex.c ****         __HAL_RTC_WRITEPROTECTION_ENABLE(hrtc);
 1348              		.loc 1 891 9 is_stmt 1 view .LVU462
 1349              		.loc 1 891 9 view .LVU463
 1350 0048 2368     		ldr	r3, [r4]
 1351 004a FF22     		movs	r2, #255
 1352 004c 5A62     		str	r2, [r3, #36]
 1353              		.loc 1 891 9 view .LVU464
 892:./STM32F4xx_HAL_Driver/Src/stm32f4xx_hal_rtc_ex.c **** 
 893:./STM32F4xx_HAL_Driver/Src/stm32f4xx_hal_rtc_ex.c ****         hrtc->State = HAL_RTC_STATE_TIMEOUT;
 1354              		.loc 1 893 9 view .LVU465
 1355              		.loc 1 893 21 is_stmt 0 view .LVU466
 1356 004e 0320     		movs	r0, #3
 1357 0050 6077     		strb	r0, [r4, #29]
 894:./STM32F4xx_HAL_Driver/Src/stm32f4xx_hal_rtc_ex.c **** 
 895:./STM32F4xx_HAL_Driver/Src/stm32f4xx_hal_rtc_ex.c ****         /* Process Unlocked */
 896:./STM32F4xx_HAL_Driver/Src/stm32f4xx_hal_rtc_ex.c ****         __HAL_UNLOCK(hrtc);
 1358              		.loc 1 896 9 is_stmt 1 view .LVU467
 1359              		.loc 1 896 9 view .LVU468
 1360 0052 0023     		movs	r3, #0
 1361 0054 2377     		strb	r3, [r4, #28]
 1362              		.loc 1 896 9 view .LVU469
 897:./STM32F4xx_HAL_Driver/Src/stm32f4xx_hal_rtc_ex.c **** 
 898:./STM32F4xx_HAL_Driver/Src/stm32f4xx_hal_rtc_ex.c ****         return HAL_TIMEOUT;
 1363              		.loc 1 898 9 view .LVU470
 1364              		.loc 1 898 16 is_stmt 0 view .LVU471
 1365 0056 36E0     		b	.L81
 1366              	.LVL103:
 1367              	.L82:
 899:./STM32F4xx_HAL_Driver/Src/stm32f4xx_hal_rtc_ex.c ****       }
 900:./STM32F4xx_HAL_Driver/Src/stm32f4xx_hal_rtc_ex.c ****     }
 901:./STM32F4xx_HAL_Driver/Src/stm32f4xx_hal_rtc_ex.c ****   }
 902:./STM32F4xx_HAL_Driver/Src/stm32f4xx_hal_rtc_ex.c **** 
 903:./STM32F4xx_HAL_Driver/Src/stm32f4xx_hal_rtc_ex.c ****   /* Disable the Wakeup timer */
 904:./STM32F4xx_HAL_Driver/Src/stm32f4xx_hal_rtc_ex.c ****   __HAL_RTC_WAKEUPTIMER_DISABLE(hrtc);
 1368              		.loc 1 904 3 is_stmt 1 view .LVU472
 1369 0058 2268     		ldr	r2, [r4]
 1370 005a 9368     		ldr	r3, [r2, #8]
 1371 005c 23F48063 		bic	r3, r3, #1024
 1372 0060 9360     		str	r3, [r2, #8]
 905:./STM32F4xx_HAL_Driver/Src/stm32f4xx_hal_rtc_ex.c **** 
 906:./STM32F4xx_HAL_Driver/Src/stm32f4xx_hal_rtc_ex.c ****   /* Clear the Wakeup flag */
 907:./STM32F4xx_HAL_Driver/Src/stm32f4xx_hal_rtc_ex.c ****   __HAL_RTC_WAKEUPTIMER_CLEAR_FLAG(hrtc, RTC_FLAG_WUTF);
ARM GAS  /tmp/cc9ZOIPt.s 			page 42


 1373              		.loc 1 907 3 view .LVU473
 1374 0062 2268     		ldr	r2, [r4]
 1375 0064 D368     		ldr	r3, [r2, #12]
 1376 0066 DBB2     		uxtb	r3, r3
 1377 0068 63F49063 		orn	r3, r3, #1152
 1378 006c D360     		str	r3, [r2, #12]
 908:./STM32F4xx_HAL_Driver/Src/stm32f4xx_hal_rtc_ex.c **** 
 909:./STM32F4xx_HAL_Driver/Src/stm32f4xx_hal_rtc_ex.c ****   /* Get tick */
 910:./STM32F4xx_HAL_Driver/Src/stm32f4xx_hal_rtc_ex.c ****   tickstart = HAL_GetTick();
 1379              		.loc 1 910 3 view .LVU474
 1380              		.loc 1 910 15 is_stmt 0 view .LVU475
 1381 006e FFF7FEFF 		bl	HAL_GetTick
 1382              	.LVL104:
 1383 0072 0746     		mov	r7, r0
 1384              	.LVL105:
 911:./STM32F4xx_HAL_Driver/Src/stm32f4xx_hal_rtc_ex.c **** 
 912:./STM32F4xx_HAL_Driver/Src/stm32f4xx_hal_rtc_ex.c ****   /* Wait till RTC WUTWF flag is set and if timeout is reached exit */
 913:./STM32F4xx_HAL_Driver/Src/stm32f4xx_hal_rtc_ex.c ****   while (__HAL_RTC_WAKEUPTIMER_GET_FLAG(hrtc, RTC_FLAG_WUTWF) == 0U)
 1385              		.loc 1 913 3 is_stmt 1 view .LVU476
 1386              	.L85:
 1387              		.loc 1 913 63 view .LVU477
 1388              		.loc 1 913 10 is_stmt 0 view .LVU478
 1389 0074 2368     		ldr	r3, [r4]
 1390 0076 DA68     		ldr	r2, [r3, #12]
 1391              		.loc 1 913 63 view .LVU479
 1392 0078 12F0040F 		tst	r2, #4
 1393 007c 0DD1     		bne	.L89
 914:./STM32F4xx_HAL_Driver/Src/stm32f4xx_hal_rtc_ex.c ****   {
 915:./STM32F4xx_HAL_Driver/Src/stm32f4xx_hal_rtc_ex.c ****     if ((HAL_GetTick() - tickstart) > RTC_TIMEOUT_VALUE)
 1394              		.loc 1 915 5 is_stmt 1 view .LVU480
 1395              		.loc 1 915 10 is_stmt 0 view .LVU481
 1396 007e FFF7FEFF 		bl	HAL_GetTick
 1397              	.LVL106:
 1398              		.loc 1 915 24 view .LVU482
 1399 0082 C01B     		subs	r0, r0, r7
 1400              		.loc 1 915 8 view .LVU483
 1401 0084 B0F57A7F 		cmp	r0, #1000
 1402 0088 F4D9     		bls	.L85
 916:./STM32F4xx_HAL_Driver/Src/stm32f4xx_hal_rtc_ex.c ****     {
 917:./STM32F4xx_HAL_Driver/Src/stm32f4xx_hal_rtc_ex.c ****       /* Enable the write protection for RTC registers */
 918:./STM32F4xx_HAL_Driver/Src/stm32f4xx_hal_rtc_ex.c ****       __HAL_RTC_WRITEPROTECTION_ENABLE(hrtc);
 1403              		.loc 1 918 7 is_stmt 1 view .LVU484
 1404              		.loc 1 918 7 view .LVU485
 1405 008a 2368     		ldr	r3, [r4]
 1406 008c FF22     		movs	r2, #255
 1407 008e 5A62     		str	r2, [r3, #36]
 1408              		.loc 1 918 7 view .LVU486
 919:./STM32F4xx_HAL_Driver/Src/stm32f4xx_hal_rtc_ex.c **** 
 920:./STM32F4xx_HAL_Driver/Src/stm32f4xx_hal_rtc_ex.c ****       hrtc->State = HAL_RTC_STATE_TIMEOUT;
 1409              		.loc 1 920 7 view .LVU487
 1410              		.loc 1 920 19 is_stmt 0 view .LVU488
 1411 0090 0320     		movs	r0, #3
 1412 0092 6077     		strb	r0, [r4, #29]
 921:./STM32F4xx_HAL_Driver/Src/stm32f4xx_hal_rtc_ex.c **** 
 922:./STM32F4xx_HAL_Driver/Src/stm32f4xx_hal_rtc_ex.c ****       /* Process Unlocked */
 923:./STM32F4xx_HAL_Driver/Src/stm32f4xx_hal_rtc_ex.c ****       __HAL_UNLOCK(hrtc);
 1413              		.loc 1 923 7 is_stmt 1 view .LVU489
ARM GAS  /tmp/cc9ZOIPt.s 			page 43


 1414              		.loc 1 923 7 view .LVU490
 1415 0094 0023     		movs	r3, #0
 1416 0096 2377     		strb	r3, [r4, #28]
 1417              		.loc 1 923 7 view .LVU491
 924:./STM32F4xx_HAL_Driver/Src/stm32f4xx_hal_rtc_ex.c **** 
 925:./STM32F4xx_HAL_Driver/Src/stm32f4xx_hal_rtc_ex.c ****       return HAL_TIMEOUT;
 1418              		.loc 1 925 7 view .LVU492
 1419              		.loc 1 925 14 is_stmt 0 view .LVU493
 1420 0098 15E0     		b	.L81
 1421              	.L89:
 926:./STM32F4xx_HAL_Driver/Src/stm32f4xx_hal_rtc_ex.c ****     }
 927:./STM32F4xx_HAL_Driver/Src/stm32f4xx_hal_rtc_ex.c ****   }
 928:./STM32F4xx_HAL_Driver/Src/stm32f4xx_hal_rtc_ex.c **** 
 929:./STM32F4xx_HAL_Driver/Src/stm32f4xx_hal_rtc_ex.c ****   /* Clear the Wakeup Timer clock source bits in CR register */
 930:./STM32F4xx_HAL_Driver/Src/stm32f4xx_hal_rtc_ex.c ****   hrtc->Instance->CR &= (uint32_t)~RTC_CR_WUCKSEL;
 1422              		.loc 1 930 3 is_stmt 1 view .LVU494
 1423              		.loc 1 930 17 is_stmt 0 view .LVU495
 1424 009a 9A68     		ldr	r2, [r3, #8]
 1425              		.loc 1 930 22 view .LVU496
 1426 009c 22F00702 		bic	r2, r2, #7
 1427 00a0 9A60     		str	r2, [r3, #8]
 931:./STM32F4xx_HAL_Driver/Src/stm32f4xx_hal_rtc_ex.c **** 
 932:./STM32F4xx_HAL_Driver/Src/stm32f4xx_hal_rtc_ex.c ****   /* Configure the clock source */
 933:./STM32F4xx_HAL_Driver/Src/stm32f4xx_hal_rtc_ex.c ****   hrtc->Instance->CR |= (uint32_t)WakeUpClock;
 1428              		.loc 1 933 3 is_stmt 1 view .LVU497
 1429              		.loc 1 933 7 is_stmt 0 view .LVU498
 1430 00a2 2268     		ldr	r2, [r4]
 1431              		.loc 1 933 17 view .LVU499
 1432 00a4 9368     		ldr	r3, [r2, #8]
 1433              		.loc 1 933 22 view .LVU500
 1434 00a6 3343     		orrs	r3, r3, r6
 1435 00a8 9360     		str	r3, [r2, #8]
 934:./STM32F4xx_HAL_Driver/Src/stm32f4xx_hal_rtc_ex.c **** 
 935:./STM32F4xx_HAL_Driver/Src/stm32f4xx_hal_rtc_ex.c ****   /* Configure the Wakeup Timer counter */
 936:./STM32F4xx_HAL_Driver/Src/stm32f4xx_hal_rtc_ex.c ****   hrtc->Instance->WUTR = (uint32_t)WakeUpCounter;
 1436              		.loc 1 936 3 is_stmt 1 view .LVU501
 1437              		.loc 1 936 7 is_stmt 0 view .LVU502
 1438 00aa 2368     		ldr	r3, [r4]
 1439              		.loc 1 936 24 view .LVU503
 1440 00ac 5D61     		str	r5, [r3, #20]
 937:./STM32F4xx_HAL_Driver/Src/stm32f4xx_hal_rtc_ex.c **** 
 938:./STM32F4xx_HAL_Driver/Src/stm32f4xx_hal_rtc_ex.c ****   /* Enable the Wakeup Timer */
 939:./STM32F4xx_HAL_Driver/Src/stm32f4xx_hal_rtc_ex.c ****   __HAL_RTC_WAKEUPTIMER_ENABLE(hrtc);
 1441              		.loc 1 939 3 is_stmt 1 view .LVU504
 1442 00ae 2268     		ldr	r2, [r4]
 1443 00b0 9368     		ldr	r3, [r2, #8]
 1444 00b2 43F48063 		orr	r3, r3, #1024
 1445 00b6 9360     		str	r3, [r2, #8]
 940:./STM32F4xx_HAL_Driver/Src/stm32f4xx_hal_rtc_ex.c **** 
 941:./STM32F4xx_HAL_Driver/Src/stm32f4xx_hal_rtc_ex.c ****   /* Enable the write protection for RTC registers */
 942:./STM32F4xx_HAL_Driver/Src/stm32f4xx_hal_rtc_ex.c ****   __HAL_RTC_WRITEPROTECTION_ENABLE(hrtc);
 1446              		.loc 1 942 3 view .LVU505
 1447              		.loc 1 942 3 view .LVU506
 1448 00b8 2368     		ldr	r3, [r4]
 1449 00ba FF22     		movs	r2, #255
 1450 00bc 5A62     		str	r2, [r3, #36]
 1451              		.loc 1 942 3 view .LVU507
ARM GAS  /tmp/cc9ZOIPt.s 			page 44


 943:./STM32F4xx_HAL_Driver/Src/stm32f4xx_hal_rtc_ex.c **** 
 944:./STM32F4xx_HAL_Driver/Src/stm32f4xx_hal_rtc_ex.c ****   hrtc->State = HAL_RTC_STATE_READY;
 1452              		.loc 1 944 3 view .LVU508
 1453              		.loc 1 944 15 is_stmt 0 view .LVU509
 1454 00be 0123     		movs	r3, #1
 1455 00c0 6377     		strb	r3, [r4, #29]
 945:./STM32F4xx_HAL_Driver/Src/stm32f4xx_hal_rtc_ex.c **** 
 946:./STM32F4xx_HAL_Driver/Src/stm32f4xx_hal_rtc_ex.c ****   /* Process Unlocked */
 947:./STM32F4xx_HAL_Driver/Src/stm32f4xx_hal_rtc_ex.c ****   __HAL_UNLOCK(hrtc);
 1456              		.loc 1 947 3 is_stmt 1 view .LVU510
 1457              		.loc 1 947 3 view .LVU511
 1458 00c2 0020     		movs	r0, #0
 1459 00c4 2077     		strb	r0, [r4, #28]
 1460              		.loc 1 947 3 view .LVU512
 948:./STM32F4xx_HAL_Driver/Src/stm32f4xx_hal_rtc_ex.c **** 
 949:./STM32F4xx_HAL_Driver/Src/stm32f4xx_hal_rtc_ex.c ****   return HAL_OK;
 1461              		.loc 1 949 3 view .LVU513
 1462              	.LVL107:
 1463              	.L81:
 950:./STM32F4xx_HAL_Driver/Src/stm32f4xx_hal_rtc_ex.c **** }
 1464              		.loc 1 950 1 is_stmt 0 view .LVU514
 1465 00c6 F8BD     		pop	{r3, r4, r5, r6, r7, pc}
 1466              	.LVL108:
 1467              	.L87:
 873:./STM32F4xx_HAL_Driver/Src/stm32f4xx_hal_rtc_ex.c **** 
 1468              		.loc 1 873 3 view .LVU515
 1469 00c8 0220     		movs	r0, #2
 1470              	.LVL109:
 873:./STM32F4xx_HAL_Driver/Src/stm32f4xx_hal_rtc_ex.c **** 
 1471              		.loc 1 873 3 view .LVU516
 1472 00ca FCE7     		b	.L81
 1473              		.cfi_endproc
 1474              	.LFE228:
 1476              		.section	.text.HAL_RTCEx_SetWakeUpTimer_IT,"ax",%progbits
 1477              		.align	1
 1478              		.global	HAL_RTCEx_SetWakeUpTimer_IT
 1479              		.syntax unified
 1480              		.thumb
 1481              		.thumb_func
 1483              	HAL_RTCEx_SetWakeUpTimer_IT:
 1484              	.LVL110:
 1485              	.LFB229:
 951:./STM32F4xx_HAL_Driver/Src/stm32f4xx_hal_rtc_ex.c **** 
 952:./STM32F4xx_HAL_Driver/Src/stm32f4xx_hal_rtc_ex.c **** /**
 953:./STM32F4xx_HAL_Driver/Src/stm32f4xx_hal_rtc_ex.c ****   * @brief  Sets wakeup timer with interrupt.
 954:./STM32F4xx_HAL_Driver/Src/stm32f4xx_hal_rtc_ex.c ****   * @param  hrtc pointer to a RTC_HandleTypeDef structure that contains
 955:./STM32F4xx_HAL_Driver/Src/stm32f4xx_hal_rtc_ex.c ****   *                the configuration information for RTC.
 956:./STM32F4xx_HAL_Driver/Src/stm32f4xx_hal_rtc_ex.c ****   * @param  WakeUpCounter Wakeup counter
 957:./STM32F4xx_HAL_Driver/Src/stm32f4xx_hal_rtc_ex.c ****   * @param  WakeUpClock Wakeup clock
 958:./STM32F4xx_HAL_Driver/Src/stm32f4xx_hal_rtc_ex.c ****   * @retval HAL status
 959:./STM32F4xx_HAL_Driver/Src/stm32f4xx_hal_rtc_ex.c ****   */
 960:./STM32F4xx_HAL_Driver/Src/stm32f4xx_hal_rtc_ex.c **** HAL_StatusTypeDef HAL_RTCEx_SetWakeUpTimer_IT(RTC_HandleTypeDef *hrtc, uint32_t WakeUpCounter, uint
 961:./STM32F4xx_HAL_Driver/Src/stm32f4xx_hal_rtc_ex.c **** {
 1486              		.loc 1 961 1 is_stmt 1 view -0
 1487              		.cfi_startproc
 1488              		@ args = 0, pretend = 0, frame = 8
 1489              		@ frame_needed = 0, uses_anonymous_args = 0
ARM GAS  /tmp/cc9ZOIPt.s 			page 45


 1490              		@ link register save eliminated.
 1491              		.loc 1 961 1 is_stmt 0 view .LVU518
 1492 0000 70B4     		push	{r4, r5, r6}
 1493              	.LCFI19:
 1494              		.cfi_def_cfa_offset 12
 1495              		.cfi_offset 4, -12
 1496              		.cfi_offset 5, -8
 1497              		.cfi_offset 6, -4
 1498 0002 83B0     		sub	sp, sp, #12
 1499              	.LCFI20:
 1500              		.cfi_def_cfa_offset 24
 1501 0004 0346     		mov	r3, r0
 962:./STM32F4xx_HAL_Driver/Src/stm32f4xx_hal_rtc_ex.c ****   __IO uint32_t count  = RTC_TIMEOUT_VALUE * (SystemCoreClock / 32U / 1000U);
 1502              		.loc 1 962 3 is_stmt 1 view .LVU519
 1503              		.loc 1 962 69 is_stmt 0 view .LVU520
 1504 0006 3948     		ldr	r0, .L101
 1505              	.LVL111:
 1506              		.loc 1 962 69 view .LVU521
 1507 0008 0468     		ldr	r4, [r0]
 1508 000a 3948     		ldr	r0, .L101+4
 1509 000c A0FB0404 		umull	r0, r4, r0, r4
 1510 0010 E40A     		lsrs	r4, r4, #11
 1511              		.loc 1 962 44 view .LVU522
 1512 0012 4FF47A70 		mov	r0, #1000
 1513 0016 00FB04F4 		mul	r4, r0, r4
 1514              		.loc 1 962 17 view .LVU523
 1515 001a 0194     		str	r4, [sp, #4]
 963:./STM32F4xx_HAL_Driver/Src/stm32f4xx_hal_rtc_ex.c **** 
 964:./STM32F4xx_HAL_Driver/Src/stm32f4xx_hal_rtc_ex.c ****   /* Check the parameters */
 965:./STM32F4xx_HAL_Driver/Src/stm32f4xx_hal_rtc_ex.c ****   assert_param(IS_RTC_WAKEUP_CLOCK(WakeUpClock));
 1516              		.loc 1 965 3 is_stmt 1 view .LVU524
 966:./STM32F4xx_HAL_Driver/Src/stm32f4xx_hal_rtc_ex.c ****   assert_param(IS_RTC_WAKEUP_COUNTER(WakeUpCounter));
 1517              		.loc 1 966 3 view .LVU525
 967:./STM32F4xx_HAL_Driver/Src/stm32f4xx_hal_rtc_ex.c **** 
 968:./STM32F4xx_HAL_Driver/Src/stm32f4xx_hal_rtc_ex.c ****   /* Process Locked */
 969:./STM32F4xx_HAL_Driver/Src/stm32f4xx_hal_rtc_ex.c ****   __HAL_LOCK(hrtc);
 1518              		.loc 1 969 3 view .LVU526
 1519              		.loc 1 969 3 view .LVU527
 1520 001c 187F     		ldrb	r0, [r3, #28]	@ zero_extendqisi2
 1521 001e 0128     		cmp	r0, #1
 1522 0020 62D0     		beq	.L97
 1523              		.loc 1 969 3 discriminator 2 view .LVU528
 1524 0022 0120     		movs	r0, #1
 1525 0024 1877     		strb	r0, [r3, #28]
 1526              		.loc 1 969 3 discriminator 2 view .LVU529
 970:./STM32F4xx_HAL_Driver/Src/stm32f4xx_hal_rtc_ex.c **** 
 971:./STM32F4xx_HAL_Driver/Src/stm32f4xx_hal_rtc_ex.c ****   hrtc->State = HAL_RTC_STATE_BUSY;
 1527              		.loc 1 971 3 discriminator 2 view .LVU530
 1528              		.loc 1 971 15 is_stmt 0 discriminator 2 view .LVU531
 1529 0026 0220     		movs	r0, #2
 1530 0028 5877     		strb	r0, [r3, #29]
 972:./STM32F4xx_HAL_Driver/Src/stm32f4xx_hal_rtc_ex.c **** 
 973:./STM32F4xx_HAL_Driver/Src/stm32f4xx_hal_rtc_ex.c ****   /* Disable the write protection for RTC registers */
 974:./STM32F4xx_HAL_Driver/Src/stm32f4xx_hal_rtc_ex.c ****   __HAL_RTC_WRITEPROTECTION_DISABLE(hrtc);
 1531              		.loc 1 974 3 is_stmt 1 discriminator 2 view .LVU532
 1532              		.loc 1 974 3 discriminator 2 view .LVU533
 1533 002a 1868     		ldr	r0, [r3]
ARM GAS  /tmp/cc9ZOIPt.s 			page 46


 1534 002c CA25     		movs	r5, #202
 1535 002e 4562     		str	r5, [r0, #36]
 1536              		.loc 1 974 3 discriminator 2 view .LVU534
 1537 0030 1868     		ldr	r0, [r3]
 1538 0032 5325     		movs	r5, #83
 1539 0034 4562     		str	r5, [r0, #36]
 1540              		.loc 1 974 3 discriminator 2 view .LVU535
 975:./STM32F4xx_HAL_Driver/Src/stm32f4xx_hal_rtc_ex.c **** 
 976:./STM32F4xx_HAL_Driver/Src/stm32f4xx_hal_rtc_ex.c ****   /* Check RTC WUTWF flag is reset only when wakeup timer enabled */
 977:./STM32F4xx_HAL_Driver/Src/stm32f4xx_hal_rtc_ex.c ****   if ((hrtc->Instance->CR & RTC_CR_WUTE) != 0U)
 1541              		.loc 1 977 3 discriminator 2 view .LVU536
 1542              		.loc 1 977 12 is_stmt 0 discriminator 2 view .LVU537
 1543 0036 1E68     		ldr	r6, [r3]
 1544              		.loc 1 977 22 discriminator 2 view .LVU538
 1545 0038 B068     		ldr	r0, [r6, #8]
 1546              		.loc 1 977 6 discriminator 2 view .LVU539
 1547 003a 10F4806F 		tst	r0, #1024
 1548 003e 08D0     		beq	.L92
 1549              	.L94:
 978:./STM32F4xx_HAL_Driver/Src/stm32f4xx_hal_rtc_ex.c ****   {
 979:./STM32F4xx_HAL_Driver/Src/stm32f4xx_hal_rtc_ex.c ****     /* Wait till RTC WUTWF flag is reset and if timeout is reached exit */
 980:./STM32F4xx_HAL_Driver/Src/stm32f4xx_hal_rtc_ex.c ****     do
 1550              		.loc 1 980 5 is_stmt 1 view .LVU540
 981:./STM32F4xx_HAL_Driver/Src/stm32f4xx_hal_rtc_ex.c ****     {
 982:./STM32F4xx_HAL_Driver/Src/stm32f4xx_hal_rtc_ex.c ****       if (count-- == 0U)
 1551              		.loc 1 982 7 view .LVU541
 1552              		.loc 1 982 16 is_stmt 0 view .LVU542
 1553 0040 0198     		ldr	r0, [sp, #4]
 1554 0042 451E     		subs	r5, r0, #1
 1555 0044 0195     		str	r5, [sp, #4]
 1556              		.loc 1 982 10 view .LVU543
 1557 0046 0028     		cmp	r0, #0
 1558 0048 3DD0     		beq	.L99
 983:./STM32F4xx_HAL_Driver/Src/stm32f4xx_hal_rtc_ex.c ****       {
 984:./STM32F4xx_HAL_Driver/Src/stm32f4xx_hal_rtc_ex.c ****         /* Enable the write protection for RTC registers */
 985:./STM32F4xx_HAL_Driver/Src/stm32f4xx_hal_rtc_ex.c ****         __HAL_RTC_WRITEPROTECTION_ENABLE(hrtc);
 986:./STM32F4xx_HAL_Driver/Src/stm32f4xx_hal_rtc_ex.c **** 
 987:./STM32F4xx_HAL_Driver/Src/stm32f4xx_hal_rtc_ex.c ****         hrtc->State = HAL_RTC_STATE_TIMEOUT;
 988:./STM32F4xx_HAL_Driver/Src/stm32f4xx_hal_rtc_ex.c **** 
 989:./STM32F4xx_HAL_Driver/Src/stm32f4xx_hal_rtc_ex.c ****         /* Process Unlocked */
 990:./STM32F4xx_HAL_Driver/Src/stm32f4xx_hal_rtc_ex.c ****         __HAL_UNLOCK(hrtc);
 991:./STM32F4xx_HAL_Driver/Src/stm32f4xx_hal_rtc_ex.c **** 
 992:./STM32F4xx_HAL_Driver/Src/stm32f4xx_hal_rtc_ex.c ****         return HAL_TIMEOUT;
 993:./STM32F4xx_HAL_Driver/Src/stm32f4xx_hal_rtc_ex.c ****       }
 994:./STM32F4xx_HAL_Driver/Src/stm32f4xx_hal_rtc_ex.c ****     } while (__HAL_RTC_WAKEUPTIMER_GET_FLAG(hrtc, RTC_FLAG_WUTWF) != 0U);
 1559              		.loc 1 994 67 is_stmt 1 view .LVU544
 1560              		.loc 1 994 14 is_stmt 0 view .LVU545
 1561 004a F068     		ldr	r0, [r6, #12]
 1562              		.loc 1 994 67 view .LVU546
 1563 004c 10F0040F 		tst	r0, #4
 1564 0050 F6D1     		bne	.L94
 1565              	.L92:
 995:./STM32F4xx_HAL_Driver/Src/stm32f4xx_hal_rtc_ex.c ****   }
 996:./STM32F4xx_HAL_Driver/Src/stm32f4xx_hal_rtc_ex.c **** 
 997:./STM32F4xx_HAL_Driver/Src/stm32f4xx_hal_rtc_ex.c ****   /* Disable the Wakeup timer */
 998:./STM32F4xx_HAL_Driver/Src/stm32f4xx_hal_rtc_ex.c ****   __HAL_RTC_WAKEUPTIMER_DISABLE(hrtc);
 1566              		.loc 1 998 3 is_stmt 1 view .LVU547
ARM GAS  /tmp/cc9ZOIPt.s 			page 47


 1567 0052 B068     		ldr	r0, [r6, #8]
 1568 0054 20F48060 		bic	r0, r0, #1024
 1569 0058 B060     		str	r0, [r6, #8]
 999:./STM32F4xx_HAL_Driver/Src/stm32f4xx_hal_rtc_ex.c **** 
1000:./STM32F4xx_HAL_Driver/Src/stm32f4xx_hal_rtc_ex.c ****   /* Clear the Wakeup flag */
1001:./STM32F4xx_HAL_Driver/Src/stm32f4xx_hal_rtc_ex.c ****   __HAL_RTC_WAKEUPTIMER_CLEAR_FLAG(hrtc, RTC_FLAG_WUTF);
 1570              		.loc 1 1001 3 view .LVU548
 1571 005a 1D68     		ldr	r5, [r3]
 1572 005c E868     		ldr	r0, [r5, #12]
 1573 005e C0B2     		uxtb	r0, r0
 1574 0060 60F49060 		orn	r0, r0, #1152
 1575 0064 E860     		str	r0, [r5, #12]
1002:./STM32F4xx_HAL_Driver/Src/stm32f4xx_hal_rtc_ex.c **** 
1003:./STM32F4xx_HAL_Driver/Src/stm32f4xx_hal_rtc_ex.c ****   /* Reload the counter */
1004:./STM32F4xx_HAL_Driver/Src/stm32f4xx_hal_rtc_ex.c ****   count = RTC_TIMEOUT_VALUE * (SystemCoreClock / 32U / 1000U);
 1576              		.loc 1 1004 3 view .LVU549
 1577              		.loc 1 1004 9 is_stmt 0 view .LVU550
 1578 0066 0194     		str	r4, [sp, #4]
 1579              	.L96:
1005:./STM32F4xx_HAL_Driver/Src/stm32f4xx_hal_rtc_ex.c **** 
1006:./STM32F4xx_HAL_Driver/Src/stm32f4xx_hal_rtc_ex.c ****   /* Wait till RTC WUTWF flag is set and if timeout is reached exit */
1007:./STM32F4xx_HAL_Driver/Src/stm32f4xx_hal_rtc_ex.c ****   do
 1580              		.loc 1 1007 3 is_stmt 1 view .LVU551
1008:./STM32F4xx_HAL_Driver/Src/stm32f4xx_hal_rtc_ex.c ****   {
1009:./STM32F4xx_HAL_Driver/Src/stm32f4xx_hal_rtc_ex.c ****     if (count-- == 0U)
 1581              		.loc 1 1009 5 view .LVU552
 1582              		.loc 1 1009 14 is_stmt 0 view .LVU553
 1583 0068 0198     		ldr	r0, [sp, #4]
 1584 006a 441E     		subs	r4, r0, #1
 1585 006c 0194     		str	r4, [sp, #4]
 1586              		.loc 1 1009 8 view .LVU554
 1587 006e 0028     		cmp	r0, #0
 1588 0070 30D0     		beq	.L100
1010:./STM32F4xx_HAL_Driver/Src/stm32f4xx_hal_rtc_ex.c ****     {
1011:./STM32F4xx_HAL_Driver/Src/stm32f4xx_hal_rtc_ex.c ****       /* Enable the write protection for RTC registers */
1012:./STM32F4xx_HAL_Driver/Src/stm32f4xx_hal_rtc_ex.c ****       __HAL_RTC_WRITEPROTECTION_ENABLE(hrtc);
1013:./STM32F4xx_HAL_Driver/Src/stm32f4xx_hal_rtc_ex.c **** 
1014:./STM32F4xx_HAL_Driver/Src/stm32f4xx_hal_rtc_ex.c ****       hrtc->State = HAL_RTC_STATE_TIMEOUT;
1015:./STM32F4xx_HAL_Driver/Src/stm32f4xx_hal_rtc_ex.c **** 
1016:./STM32F4xx_HAL_Driver/Src/stm32f4xx_hal_rtc_ex.c ****       /* Process Unlocked */
1017:./STM32F4xx_HAL_Driver/Src/stm32f4xx_hal_rtc_ex.c ****       __HAL_UNLOCK(hrtc);
1018:./STM32F4xx_HAL_Driver/Src/stm32f4xx_hal_rtc_ex.c **** 
1019:./STM32F4xx_HAL_Driver/Src/stm32f4xx_hal_rtc_ex.c ****       return HAL_TIMEOUT;
1020:./STM32F4xx_HAL_Driver/Src/stm32f4xx_hal_rtc_ex.c ****     }
1021:./STM32F4xx_HAL_Driver/Src/stm32f4xx_hal_rtc_ex.c ****   } while (__HAL_RTC_WAKEUPTIMER_GET_FLAG(hrtc, RTC_FLAG_WUTWF) == 0U);
 1589              		.loc 1 1021 65 is_stmt 1 view .LVU555
 1590              		.loc 1 1021 12 is_stmt 0 view .LVU556
 1591 0072 1868     		ldr	r0, [r3]
 1592 0074 C468     		ldr	r4, [r0, #12]
 1593              		.loc 1 1021 65 view .LVU557
 1594 0076 14F0040F 		tst	r4, #4
 1595 007a F5D0     		beq	.L96
1022:./STM32F4xx_HAL_Driver/Src/stm32f4xx_hal_rtc_ex.c **** 
1023:./STM32F4xx_HAL_Driver/Src/stm32f4xx_hal_rtc_ex.c ****   /* Clear the Wakeup Timer clock source bits in CR register */
1024:./STM32F4xx_HAL_Driver/Src/stm32f4xx_hal_rtc_ex.c ****   hrtc->Instance->CR &= (uint32_t)~RTC_CR_WUCKSEL;
 1596              		.loc 1 1024 3 is_stmt 1 view .LVU558
 1597              		.loc 1 1024 17 is_stmt 0 view .LVU559
ARM GAS  /tmp/cc9ZOIPt.s 			page 48


 1598 007c 8468     		ldr	r4, [r0, #8]
 1599              		.loc 1 1024 22 view .LVU560
 1600 007e 24F00704 		bic	r4, r4, #7
 1601 0082 8460     		str	r4, [r0, #8]
1025:./STM32F4xx_HAL_Driver/Src/stm32f4xx_hal_rtc_ex.c **** 
1026:./STM32F4xx_HAL_Driver/Src/stm32f4xx_hal_rtc_ex.c ****   /* Configure the clock source */
1027:./STM32F4xx_HAL_Driver/Src/stm32f4xx_hal_rtc_ex.c ****   hrtc->Instance->CR |= (uint32_t)WakeUpClock;
 1602              		.loc 1 1027 3 is_stmt 1 view .LVU561
 1603              		.loc 1 1027 7 is_stmt 0 view .LVU562
 1604 0084 1C68     		ldr	r4, [r3]
 1605              		.loc 1 1027 17 view .LVU563
 1606 0086 A068     		ldr	r0, [r4, #8]
 1607              		.loc 1 1027 22 view .LVU564
 1608 0088 0243     		orrs	r2, r2, r0
 1609              	.LVL112:
 1610              		.loc 1 1027 22 view .LVU565
 1611 008a A260     		str	r2, [r4, #8]
1028:./STM32F4xx_HAL_Driver/Src/stm32f4xx_hal_rtc_ex.c **** 
1029:./STM32F4xx_HAL_Driver/Src/stm32f4xx_hal_rtc_ex.c ****   /* Configure the Wakeup Timer counter */
1030:./STM32F4xx_HAL_Driver/Src/stm32f4xx_hal_rtc_ex.c ****   hrtc->Instance->WUTR = (uint32_t)WakeUpCounter;
 1612              		.loc 1 1030 3 is_stmt 1 view .LVU566
 1613              		.loc 1 1030 7 is_stmt 0 view .LVU567
 1614 008c 1A68     		ldr	r2, [r3]
 1615              		.loc 1 1030 24 view .LVU568
 1616 008e 5161     		str	r1, [r2, #20]
1031:./STM32F4xx_HAL_Driver/Src/stm32f4xx_hal_rtc_ex.c **** 
1032:./STM32F4xx_HAL_Driver/Src/stm32f4xx_hal_rtc_ex.c ****   /* RTC wakeup timer Interrupt Configuration: EXTI configuration */
1033:./STM32F4xx_HAL_Driver/Src/stm32f4xx_hal_rtc_ex.c ****   __HAL_RTC_WAKEUPTIMER_EXTI_ENABLE_IT();
 1617              		.loc 1 1033 3 is_stmt 1 view .LVU569
 1618 0090 184A     		ldr	r2, .L101+8
 1619 0092 1168     		ldr	r1, [r2]
 1620              	.LVL113:
 1621              		.loc 1 1033 3 is_stmt 0 view .LVU570
 1622 0094 41F48001 		orr	r1, r1, #4194304
 1623 0098 1160     		str	r1, [r2]
1034:./STM32F4xx_HAL_Driver/Src/stm32f4xx_hal_rtc_ex.c ****   __HAL_RTC_WAKEUPTIMER_EXTI_ENABLE_RISING_EDGE();
 1624              		.loc 1 1034 3 is_stmt 1 view .LVU571
 1625 009a 9168     		ldr	r1, [r2, #8]
 1626 009c 41F48001 		orr	r1, r1, #4194304
 1627 00a0 9160     		str	r1, [r2, #8]
1035:./STM32F4xx_HAL_Driver/Src/stm32f4xx_hal_rtc_ex.c **** 
1036:./STM32F4xx_HAL_Driver/Src/stm32f4xx_hal_rtc_ex.c ****   /* Configure the interrupt in the RTC_CR register */
1037:./STM32F4xx_HAL_Driver/Src/stm32f4xx_hal_rtc_ex.c ****   __HAL_RTC_WAKEUPTIMER_ENABLE_IT(hrtc, RTC_IT_WUT);
 1628              		.loc 1 1037 3 view .LVU572
 1629 00a2 1968     		ldr	r1, [r3]
 1630 00a4 8A68     		ldr	r2, [r1, #8]
 1631 00a6 42F48042 		orr	r2, r2, #16384
 1632 00aa 8A60     		str	r2, [r1, #8]
1038:./STM32F4xx_HAL_Driver/Src/stm32f4xx_hal_rtc_ex.c **** 
1039:./STM32F4xx_HAL_Driver/Src/stm32f4xx_hal_rtc_ex.c ****   /* Enable the Wakeup Timer */
1040:./STM32F4xx_HAL_Driver/Src/stm32f4xx_hal_rtc_ex.c ****   __HAL_RTC_WAKEUPTIMER_ENABLE(hrtc);
 1633              		.loc 1 1040 3 view .LVU573
 1634 00ac 1968     		ldr	r1, [r3]
 1635 00ae 8A68     		ldr	r2, [r1, #8]
 1636 00b0 42F48062 		orr	r2, r2, #1024
 1637 00b4 8A60     		str	r2, [r1, #8]
1041:./STM32F4xx_HAL_Driver/Src/stm32f4xx_hal_rtc_ex.c **** 
ARM GAS  /tmp/cc9ZOIPt.s 			page 49


1042:./STM32F4xx_HAL_Driver/Src/stm32f4xx_hal_rtc_ex.c ****   /* Enable the write protection for RTC registers */
1043:./STM32F4xx_HAL_Driver/Src/stm32f4xx_hal_rtc_ex.c ****   __HAL_RTC_WRITEPROTECTION_ENABLE(hrtc);
 1638              		.loc 1 1043 3 view .LVU574
 1639              		.loc 1 1043 3 view .LVU575
 1640 00b6 1A68     		ldr	r2, [r3]
 1641 00b8 FF21     		movs	r1, #255
 1642 00ba 5162     		str	r1, [r2, #36]
 1643              		.loc 1 1043 3 view .LVU576
1044:./STM32F4xx_HAL_Driver/Src/stm32f4xx_hal_rtc_ex.c **** 
1045:./STM32F4xx_HAL_Driver/Src/stm32f4xx_hal_rtc_ex.c ****   hrtc->State = HAL_RTC_STATE_READY;
 1644              		.loc 1 1045 3 view .LVU577
 1645              		.loc 1 1045 15 is_stmt 0 view .LVU578
 1646 00bc 0122     		movs	r2, #1
 1647 00be 5A77     		strb	r2, [r3, #29]
1046:./STM32F4xx_HAL_Driver/Src/stm32f4xx_hal_rtc_ex.c **** 
1047:./STM32F4xx_HAL_Driver/Src/stm32f4xx_hal_rtc_ex.c ****   /* Process Unlocked */
1048:./STM32F4xx_HAL_Driver/Src/stm32f4xx_hal_rtc_ex.c ****   __HAL_UNLOCK(hrtc);
 1648              		.loc 1 1048 3 is_stmt 1 view .LVU579
 1649              		.loc 1 1048 3 view .LVU580
 1650 00c0 0020     		movs	r0, #0
 1651 00c2 1877     		strb	r0, [r3, #28]
 1652              		.loc 1 1048 3 view .LVU581
1049:./STM32F4xx_HAL_Driver/Src/stm32f4xx_hal_rtc_ex.c **** 
1050:./STM32F4xx_HAL_Driver/Src/stm32f4xx_hal_rtc_ex.c ****   return HAL_OK;
 1653              		.loc 1 1050 3 view .LVU582
 1654              		.loc 1 1050 10 is_stmt 0 view .LVU583
 1655 00c4 0DE0     		b	.L91
 1656              	.LVL114:
 1657              	.L99:
 985:./STM32F4xx_HAL_Driver/Src/stm32f4xx_hal_rtc_ex.c **** 
 1658              		.loc 1 985 9 is_stmt 1 view .LVU584
 985:./STM32F4xx_HAL_Driver/Src/stm32f4xx_hal_rtc_ex.c **** 
 1659              		.loc 1 985 9 view .LVU585
 1660 00c6 FF22     		movs	r2, #255
 1661              	.LVL115:
 985:./STM32F4xx_HAL_Driver/Src/stm32f4xx_hal_rtc_ex.c **** 
 1662              		.loc 1 985 9 is_stmt 0 view .LVU586
 1663 00c8 7262     		str	r2, [r6, #36]
 985:./STM32F4xx_HAL_Driver/Src/stm32f4xx_hal_rtc_ex.c **** 
 1664              		.loc 1 985 9 is_stmt 1 view .LVU587
 987:./STM32F4xx_HAL_Driver/Src/stm32f4xx_hal_rtc_ex.c **** 
 1665              		.loc 1 987 9 view .LVU588
 987:./STM32F4xx_HAL_Driver/Src/stm32f4xx_hal_rtc_ex.c **** 
 1666              		.loc 1 987 21 is_stmt 0 view .LVU589
 1667 00ca 0320     		movs	r0, #3
 1668 00cc 5877     		strb	r0, [r3, #29]
 990:./STM32F4xx_HAL_Driver/Src/stm32f4xx_hal_rtc_ex.c **** 
 1669              		.loc 1 990 9 is_stmt 1 view .LVU590
 990:./STM32F4xx_HAL_Driver/Src/stm32f4xx_hal_rtc_ex.c **** 
 1670              		.loc 1 990 9 view .LVU591
 1671 00ce 0022     		movs	r2, #0
 1672 00d0 1A77     		strb	r2, [r3, #28]
 990:./STM32F4xx_HAL_Driver/Src/stm32f4xx_hal_rtc_ex.c **** 
 1673              		.loc 1 990 9 view .LVU592
 992:./STM32F4xx_HAL_Driver/Src/stm32f4xx_hal_rtc_ex.c ****       }
 1674              		.loc 1 992 9 view .LVU593
 992:./STM32F4xx_HAL_Driver/Src/stm32f4xx_hal_rtc_ex.c ****       }
ARM GAS  /tmp/cc9ZOIPt.s 			page 50


 1675              		.loc 1 992 16 is_stmt 0 view .LVU594
 1676 00d2 06E0     		b	.L91
 1677              	.LVL116:
 1678              	.L100:
1012:./STM32F4xx_HAL_Driver/Src/stm32f4xx_hal_rtc_ex.c **** 
 1679              		.loc 1 1012 7 is_stmt 1 view .LVU595
1012:./STM32F4xx_HAL_Driver/Src/stm32f4xx_hal_rtc_ex.c **** 
 1680              		.loc 1 1012 7 view .LVU596
 1681 00d4 1A68     		ldr	r2, [r3]
 1682              	.LVL117:
1012:./STM32F4xx_HAL_Driver/Src/stm32f4xx_hal_rtc_ex.c **** 
 1683              		.loc 1 1012 7 is_stmt 0 view .LVU597
 1684 00d6 FF21     		movs	r1, #255
 1685              	.LVL118:
1012:./STM32F4xx_HAL_Driver/Src/stm32f4xx_hal_rtc_ex.c **** 
 1686              		.loc 1 1012 7 view .LVU598
 1687 00d8 5162     		str	r1, [r2, #36]
1012:./STM32F4xx_HAL_Driver/Src/stm32f4xx_hal_rtc_ex.c **** 
 1688              		.loc 1 1012 7 is_stmt 1 view .LVU599
1014:./STM32F4xx_HAL_Driver/Src/stm32f4xx_hal_rtc_ex.c **** 
 1689              		.loc 1 1014 7 view .LVU600
1014:./STM32F4xx_HAL_Driver/Src/stm32f4xx_hal_rtc_ex.c **** 
 1690              		.loc 1 1014 19 is_stmt 0 view .LVU601
 1691 00da 0320     		movs	r0, #3
 1692 00dc 5877     		strb	r0, [r3, #29]
1017:./STM32F4xx_HAL_Driver/Src/stm32f4xx_hal_rtc_ex.c **** 
 1693              		.loc 1 1017 7 is_stmt 1 view .LVU602
1017:./STM32F4xx_HAL_Driver/Src/stm32f4xx_hal_rtc_ex.c **** 
 1694              		.loc 1 1017 7 view .LVU603
 1695 00de 0022     		movs	r2, #0
 1696 00e0 1A77     		strb	r2, [r3, #28]
1017:./STM32F4xx_HAL_Driver/Src/stm32f4xx_hal_rtc_ex.c **** 
 1697              		.loc 1 1017 7 view .LVU604
1019:./STM32F4xx_HAL_Driver/Src/stm32f4xx_hal_rtc_ex.c ****     }
 1698              		.loc 1 1019 7 view .LVU605
 1699              	.L91:
1051:./STM32F4xx_HAL_Driver/Src/stm32f4xx_hal_rtc_ex.c **** }
 1700              		.loc 1 1051 1 is_stmt 0 view .LVU606
 1701 00e2 03B0     		add	sp, sp, #12
 1702              	.LCFI21:
 1703              		.cfi_remember_state
 1704              		.cfi_def_cfa_offset 12
 1705              		@ sp needed
 1706 00e4 70BC     		pop	{r4, r5, r6}
 1707              	.LCFI22:
 1708              		.cfi_restore 6
 1709              		.cfi_restore 5
 1710              		.cfi_restore 4
 1711              		.cfi_def_cfa_offset 0
 1712 00e6 7047     		bx	lr
 1713              	.LVL119:
 1714              	.L97:
 1715              	.LCFI23:
 1716              		.cfi_restore_state
 969:./STM32F4xx_HAL_Driver/Src/stm32f4xx_hal_rtc_ex.c **** 
 1717              		.loc 1 969 3 view .LVU607
 1718 00e8 0220     		movs	r0, #2
ARM GAS  /tmp/cc9ZOIPt.s 			page 51


 1719 00ea FAE7     		b	.L91
 1720              	.L102:
 1721              		.align	2
 1722              	.L101:
 1723 00ec 00000000 		.word	SystemCoreClock
 1724 00f0 D34D6210 		.word	274877907
 1725 00f4 003C0140 		.word	1073822720
 1726              		.cfi_endproc
 1727              	.LFE229:
 1729              		.section	.text.HAL_RTCEx_DeactivateWakeUpTimer,"ax",%progbits
 1730              		.align	1
 1731              		.global	HAL_RTCEx_DeactivateWakeUpTimer
 1732              		.syntax unified
 1733              		.thumb
 1734              		.thumb_func
 1736              	HAL_RTCEx_DeactivateWakeUpTimer:
 1737              	.LVL120:
 1738              	.LFB230:
1052:./STM32F4xx_HAL_Driver/Src/stm32f4xx_hal_rtc_ex.c **** 
1053:./STM32F4xx_HAL_Driver/Src/stm32f4xx_hal_rtc_ex.c **** /**
1054:./STM32F4xx_HAL_Driver/Src/stm32f4xx_hal_rtc_ex.c ****   * @brief  Deactivates wakeup timer counter.
1055:./STM32F4xx_HAL_Driver/Src/stm32f4xx_hal_rtc_ex.c ****   * @param  hrtc pointer to a RTC_HandleTypeDef structure that contains
1056:./STM32F4xx_HAL_Driver/Src/stm32f4xx_hal_rtc_ex.c ****   *                the configuration information for RTC.
1057:./STM32F4xx_HAL_Driver/Src/stm32f4xx_hal_rtc_ex.c ****   * @retval HAL status
1058:./STM32F4xx_HAL_Driver/Src/stm32f4xx_hal_rtc_ex.c ****   */
1059:./STM32F4xx_HAL_Driver/Src/stm32f4xx_hal_rtc_ex.c **** HAL_StatusTypeDef HAL_RTCEx_DeactivateWakeUpTimer(RTC_HandleTypeDef *hrtc)
1060:./STM32F4xx_HAL_Driver/Src/stm32f4xx_hal_rtc_ex.c **** {
 1739              		.loc 1 1060 1 is_stmt 1 view -0
 1740              		.cfi_startproc
 1741              		@ args = 0, pretend = 0, frame = 0
 1742              		@ frame_needed = 0, uses_anonymous_args = 0
 1743              		.loc 1 1060 1 is_stmt 0 view .LVU609
 1744 0000 38B5     		push	{r3, r4, r5, lr}
 1745              	.LCFI24:
 1746              		.cfi_def_cfa_offset 16
 1747              		.cfi_offset 3, -16
 1748              		.cfi_offset 4, -12
 1749              		.cfi_offset 5, -8
 1750              		.cfi_offset 14, -4
1061:./STM32F4xx_HAL_Driver/Src/stm32f4xx_hal_rtc_ex.c ****   uint32_t tickstart = 0U;
 1751              		.loc 1 1061 3 is_stmt 1 view .LVU610
 1752              	.LVL121:
1062:./STM32F4xx_HAL_Driver/Src/stm32f4xx_hal_rtc_ex.c **** 
1063:./STM32F4xx_HAL_Driver/Src/stm32f4xx_hal_rtc_ex.c ****   /* Process Locked */
1064:./STM32F4xx_HAL_Driver/Src/stm32f4xx_hal_rtc_ex.c ****   __HAL_LOCK(hrtc);
 1753              		.loc 1 1064 3 view .LVU611
 1754              		.loc 1 1064 3 view .LVU612
 1755 0002 037F     		ldrb	r3, [r0, #28]	@ zero_extendqisi2
 1756 0004 012B     		cmp	r3, #1
 1757 0006 31D0     		beq	.L107
 1758 0008 0446     		mov	r4, r0
 1759              		.loc 1 1064 3 discriminator 2 view .LVU613
 1760 000a 0123     		movs	r3, #1
 1761 000c 0377     		strb	r3, [r0, #28]
 1762              		.loc 1 1064 3 discriminator 2 view .LVU614
1065:./STM32F4xx_HAL_Driver/Src/stm32f4xx_hal_rtc_ex.c **** 
1066:./STM32F4xx_HAL_Driver/Src/stm32f4xx_hal_rtc_ex.c ****   hrtc->State = HAL_RTC_STATE_BUSY;
ARM GAS  /tmp/cc9ZOIPt.s 			page 52


 1763              		.loc 1 1066 3 discriminator 2 view .LVU615
 1764              		.loc 1 1066 15 is_stmt 0 discriminator 2 view .LVU616
 1765 000e 0223     		movs	r3, #2
 1766 0010 4377     		strb	r3, [r0, #29]
1067:./STM32F4xx_HAL_Driver/Src/stm32f4xx_hal_rtc_ex.c **** 
1068:./STM32F4xx_HAL_Driver/Src/stm32f4xx_hal_rtc_ex.c ****   /* Disable the write protection for RTC registers */
1069:./STM32F4xx_HAL_Driver/Src/stm32f4xx_hal_rtc_ex.c ****   __HAL_RTC_WRITEPROTECTION_DISABLE(hrtc);
 1767              		.loc 1 1069 3 is_stmt 1 discriminator 2 view .LVU617
 1768              		.loc 1 1069 3 discriminator 2 view .LVU618
 1769 0012 0368     		ldr	r3, [r0]
 1770 0014 CA22     		movs	r2, #202
 1771 0016 5A62     		str	r2, [r3, #36]
 1772              		.loc 1 1069 3 discriminator 2 view .LVU619
 1773 0018 0368     		ldr	r3, [r0]
 1774 001a 5322     		movs	r2, #83
 1775 001c 5A62     		str	r2, [r3, #36]
 1776              		.loc 1 1069 3 discriminator 2 view .LVU620
1070:./STM32F4xx_HAL_Driver/Src/stm32f4xx_hal_rtc_ex.c **** 
1071:./STM32F4xx_HAL_Driver/Src/stm32f4xx_hal_rtc_ex.c ****   /* Disable the Wakeup Timer */
1072:./STM32F4xx_HAL_Driver/Src/stm32f4xx_hal_rtc_ex.c ****   __HAL_RTC_WAKEUPTIMER_DISABLE(hrtc);
 1777              		.loc 1 1072 3 discriminator 2 view .LVU621
 1778 001e 0268     		ldr	r2, [r0]
 1779 0020 9368     		ldr	r3, [r2, #8]
 1780 0022 23F48063 		bic	r3, r3, #1024
 1781 0026 9360     		str	r3, [r2, #8]
1073:./STM32F4xx_HAL_Driver/Src/stm32f4xx_hal_rtc_ex.c **** 
1074:./STM32F4xx_HAL_Driver/Src/stm32f4xx_hal_rtc_ex.c ****   /* In case of interrupt mode is used, the interrupt source must disabled */
1075:./STM32F4xx_HAL_Driver/Src/stm32f4xx_hal_rtc_ex.c ****   __HAL_RTC_WAKEUPTIMER_DISABLE_IT(hrtc, RTC_IT_WUT);
 1782              		.loc 1 1075 3 discriminator 2 view .LVU622
 1783 0028 0268     		ldr	r2, [r0]
 1784 002a 9368     		ldr	r3, [r2, #8]
 1785 002c 23F48043 		bic	r3, r3, #16384
 1786 0030 9360     		str	r3, [r2, #8]
1076:./STM32F4xx_HAL_Driver/Src/stm32f4xx_hal_rtc_ex.c **** 
1077:./STM32F4xx_HAL_Driver/Src/stm32f4xx_hal_rtc_ex.c ****   /* Get tick */
1078:./STM32F4xx_HAL_Driver/Src/stm32f4xx_hal_rtc_ex.c ****   tickstart = HAL_GetTick();
 1787              		.loc 1 1078 3 discriminator 2 view .LVU623
 1788              		.loc 1 1078 15 is_stmt 0 discriminator 2 view .LVU624
 1789 0032 FFF7FEFF 		bl	HAL_GetTick
 1790              	.LVL122:
 1791              		.loc 1 1078 15 discriminator 2 view .LVU625
 1792 0036 0546     		mov	r5, r0
 1793              	.LVL123:
1079:./STM32F4xx_HAL_Driver/Src/stm32f4xx_hal_rtc_ex.c **** 
1080:./STM32F4xx_HAL_Driver/Src/stm32f4xx_hal_rtc_ex.c ****   /* Wait till RTC WUTWF flag is set and if timeout is reached exit */
1081:./STM32F4xx_HAL_Driver/Src/stm32f4xx_hal_rtc_ex.c ****   while (__HAL_RTC_WAKEUPTIMER_GET_FLAG(hrtc, RTC_FLAG_WUTWF) == 0U)
 1794              		.loc 1 1081 3 is_stmt 1 discriminator 2 view .LVU626
 1795              	.L105:
 1796              		.loc 1 1081 63 view .LVU627
 1797              		.loc 1 1081 10 is_stmt 0 view .LVU628
 1798 0038 2368     		ldr	r3, [r4]
 1799 003a DA68     		ldr	r2, [r3, #12]
 1800              		.loc 1 1081 63 view .LVU629
 1801 003c 12F0040F 		tst	r2, #4
 1802 0040 0DD1     		bne	.L109
1082:./STM32F4xx_HAL_Driver/Src/stm32f4xx_hal_rtc_ex.c ****   {
1083:./STM32F4xx_HAL_Driver/Src/stm32f4xx_hal_rtc_ex.c ****     if ((HAL_GetTick() - tickstart) > RTC_TIMEOUT_VALUE)
ARM GAS  /tmp/cc9ZOIPt.s 			page 53


 1803              		.loc 1 1083 5 is_stmt 1 view .LVU630
 1804              		.loc 1 1083 10 is_stmt 0 view .LVU631
 1805 0042 FFF7FEFF 		bl	HAL_GetTick
 1806              	.LVL124:
 1807              		.loc 1 1083 24 view .LVU632
 1808 0046 431B     		subs	r3, r0, r5
 1809              		.loc 1 1083 8 view .LVU633
 1810 0048 B3F57A7F 		cmp	r3, #1000
 1811 004c F4D9     		bls	.L105
1084:./STM32F4xx_HAL_Driver/Src/stm32f4xx_hal_rtc_ex.c ****     {
1085:./STM32F4xx_HAL_Driver/Src/stm32f4xx_hal_rtc_ex.c ****       /* Enable the write protection for RTC registers */
1086:./STM32F4xx_HAL_Driver/Src/stm32f4xx_hal_rtc_ex.c ****       __HAL_RTC_WRITEPROTECTION_ENABLE(hrtc);
 1812              		.loc 1 1086 7 is_stmt 1 view .LVU634
 1813              		.loc 1 1086 7 view .LVU635
 1814 004e 2368     		ldr	r3, [r4]
 1815 0050 FF22     		movs	r2, #255
 1816 0052 5A62     		str	r2, [r3, #36]
 1817              		.loc 1 1086 7 view .LVU636
1087:./STM32F4xx_HAL_Driver/Src/stm32f4xx_hal_rtc_ex.c **** 
1088:./STM32F4xx_HAL_Driver/Src/stm32f4xx_hal_rtc_ex.c ****       hrtc->State = HAL_RTC_STATE_TIMEOUT;
 1818              		.loc 1 1088 7 view .LVU637
 1819              		.loc 1 1088 19 is_stmt 0 view .LVU638
 1820 0054 0320     		movs	r0, #3
 1821 0056 6077     		strb	r0, [r4, #29]
1089:./STM32F4xx_HAL_Driver/Src/stm32f4xx_hal_rtc_ex.c **** 
1090:./STM32F4xx_HAL_Driver/Src/stm32f4xx_hal_rtc_ex.c ****       /* Process Unlocked */
1091:./STM32F4xx_HAL_Driver/Src/stm32f4xx_hal_rtc_ex.c ****       __HAL_UNLOCK(hrtc);
 1822              		.loc 1 1091 7 is_stmt 1 view .LVU639
 1823              		.loc 1 1091 7 view .LVU640
 1824 0058 0023     		movs	r3, #0
 1825 005a 2377     		strb	r3, [r4, #28]
 1826              		.loc 1 1091 7 view .LVU641
1092:./STM32F4xx_HAL_Driver/Src/stm32f4xx_hal_rtc_ex.c **** 
1093:./STM32F4xx_HAL_Driver/Src/stm32f4xx_hal_rtc_ex.c ****       return HAL_TIMEOUT;
 1827              		.loc 1 1093 7 view .LVU642
 1828              		.loc 1 1093 14 is_stmt 0 view .LVU643
 1829 005c 05E0     		b	.L104
 1830              	.L109:
1094:./STM32F4xx_HAL_Driver/Src/stm32f4xx_hal_rtc_ex.c ****     }
1095:./STM32F4xx_HAL_Driver/Src/stm32f4xx_hal_rtc_ex.c ****   }
1096:./STM32F4xx_HAL_Driver/Src/stm32f4xx_hal_rtc_ex.c **** 
1097:./STM32F4xx_HAL_Driver/Src/stm32f4xx_hal_rtc_ex.c ****   /* Enable the write protection for RTC registers */
1098:./STM32F4xx_HAL_Driver/Src/stm32f4xx_hal_rtc_ex.c ****   __HAL_RTC_WRITEPROTECTION_ENABLE(hrtc);
 1831              		.loc 1 1098 3 is_stmt 1 view .LVU644
 1832              		.loc 1 1098 3 view .LVU645
 1833 005e FF22     		movs	r2, #255
 1834 0060 5A62     		str	r2, [r3, #36]
 1835              		.loc 1 1098 3 view .LVU646
1099:./STM32F4xx_HAL_Driver/Src/stm32f4xx_hal_rtc_ex.c **** 
1100:./STM32F4xx_HAL_Driver/Src/stm32f4xx_hal_rtc_ex.c ****   hrtc->State = HAL_RTC_STATE_READY;
 1836              		.loc 1 1100 3 view .LVU647
 1837              		.loc 1 1100 15 is_stmt 0 view .LVU648
 1838 0062 0123     		movs	r3, #1
 1839 0064 6377     		strb	r3, [r4, #29]
1101:./STM32F4xx_HAL_Driver/Src/stm32f4xx_hal_rtc_ex.c **** 
1102:./STM32F4xx_HAL_Driver/Src/stm32f4xx_hal_rtc_ex.c ****   /* Process Unlocked */
1103:./STM32F4xx_HAL_Driver/Src/stm32f4xx_hal_rtc_ex.c ****   __HAL_UNLOCK(hrtc);
ARM GAS  /tmp/cc9ZOIPt.s 			page 54


 1840              		.loc 1 1103 3 is_stmt 1 view .LVU649
 1841              		.loc 1 1103 3 view .LVU650
 1842 0066 0020     		movs	r0, #0
 1843 0068 2077     		strb	r0, [r4, #28]
 1844              		.loc 1 1103 3 view .LVU651
1104:./STM32F4xx_HAL_Driver/Src/stm32f4xx_hal_rtc_ex.c **** 
1105:./STM32F4xx_HAL_Driver/Src/stm32f4xx_hal_rtc_ex.c ****   return HAL_OK;
 1845              		.loc 1 1105 3 view .LVU652
 1846              	.LVL125:
 1847              	.L104:
1106:./STM32F4xx_HAL_Driver/Src/stm32f4xx_hal_rtc_ex.c **** }
 1848              		.loc 1 1106 1 is_stmt 0 view .LVU653
 1849 006a 38BD     		pop	{r3, r4, r5, pc}
 1850              	.LVL126:
 1851              	.L107:
1064:./STM32F4xx_HAL_Driver/Src/stm32f4xx_hal_rtc_ex.c **** 
 1852              		.loc 1 1064 3 view .LVU654
 1853 006c 0220     		movs	r0, #2
 1854              	.LVL127:
1064:./STM32F4xx_HAL_Driver/Src/stm32f4xx_hal_rtc_ex.c **** 
 1855              		.loc 1 1064 3 view .LVU655
 1856 006e FCE7     		b	.L104
 1857              		.cfi_endproc
 1858              	.LFE230:
 1860              		.section	.text.HAL_RTCEx_GetWakeUpTimer,"ax",%progbits
 1861              		.align	1
 1862              		.global	HAL_RTCEx_GetWakeUpTimer
 1863              		.syntax unified
 1864              		.thumb
 1865              		.thumb_func
 1867              	HAL_RTCEx_GetWakeUpTimer:
 1868              	.LVL128:
 1869              	.LFB231:
1107:./STM32F4xx_HAL_Driver/Src/stm32f4xx_hal_rtc_ex.c **** 
1108:./STM32F4xx_HAL_Driver/Src/stm32f4xx_hal_rtc_ex.c **** /**
1109:./STM32F4xx_HAL_Driver/Src/stm32f4xx_hal_rtc_ex.c ****   * @brief  Gets wakeup timer counter.
1110:./STM32F4xx_HAL_Driver/Src/stm32f4xx_hal_rtc_ex.c ****   * @param  hrtc pointer to a RTC_HandleTypeDef structure that contains
1111:./STM32F4xx_HAL_Driver/Src/stm32f4xx_hal_rtc_ex.c ****   *                the configuration information for RTC.
1112:./STM32F4xx_HAL_Driver/Src/stm32f4xx_hal_rtc_ex.c ****   * @retval Counter value
1113:./STM32F4xx_HAL_Driver/Src/stm32f4xx_hal_rtc_ex.c ****   */
1114:./STM32F4xx_HAL_Driver/Src/stm32f4xx_hal_rtc_ex.c **** uint32_t HAL_RTCEx_GetWakeUpTimer(RTC_HandleTypeDef *hrtc)
1115:./STM32F4xx_HAL_Driver/Src/stm32f4xx_hal_rtc_ex.c **** {
 1870              		.loc 1 1115 1 is_stmt 1 view -0
 1871              		.cfi_startproc
 1872              		@ args = 0, pretend = 0, frame = 0
 1873              		@ frame_needed = 0, uses_anonymous_args = 0
 1874              		@ link register save eliminated.
1116:./STM32F4xx_HAL_Driver/Src/stm32f4xx_hal_rtc_ex.c ****   /* Get the counter value */
1117:./STM32F4xx_HAL_Driver/Src/stm32f4xx_hal_rtc_ex.c ****   return ((uint32_t)(hrtc->Instance->WUTR & RTC_WUTR_WUT));
 1875              		.loc 1 1117 3 view .LVU657
 1876              		.loc 1 1117 26 is_stmt 0 view .LVU658
 1877 0000 0368     		ldr	r3, [r0]
 1878              		.loc 1 1117 36 view .LVU659
 1879 0002 5869     		ldr	r0, [r3, #20]
 1880              	.LVL129:
1118:./STM32F4xx_HAL_Driver/Src/stm32f4xx_hal_rtc_ex.c **** }
 1881              		.loc 1 1118 1 view .LVU660
ARM GAS  /tmp/cc9ZOIPt.s 			page 55


 1882 0004 80B2     		uxth	r0, r0
 1883 0006 7047     		bx	lr
 1884              		.cfi_endproc
 1885              	.LFE231:
 1887              		.section	.text.HAL_RTCEx_WakeUpTimerEventCallback,"ax",%progbits
 1888              		.align	1
 1889              		.weak	HAL_RTCEx_WakeUpTimerEventCallback
 1890              		.syntax unified
 1891              		.thumb
 1892              		.thumb_func
 1894              	HAL_RTCEx_WakeUpTimerEventCallback:
 1895              	.LVL130:
 1896              	.LFB233:
1119:./STM32F4xx_HAL_Driver/Src/stm32f4xx_hal_rtc_ex.c **** 
1120:./STM32F4xx_HAL_Driver/Src/stm32f4xx_hal_rtc_ex.c **** /**
1121:./STM32F4xx_HAL_Driver/Src/stm32f4xx_hal_rtc_ex.c ****   * @brief  Handles Wakeup Timer interrupt request.
1122:./STM32F4xx_HAL_Driver/Src/stm32f4xx_hal_rtc_ex.c ****   * @note   Unlike alarm interrupt line (shared by Alarms A and B) or tamper
1123:./STM32F4xx_HAL_Driver/Src/stm32f4xx_hal_rtc_ex.c ****   *         interrupt line (shared by timestamp and tampers) wakeup timer
1124:./STM32F4xx_HAL_Driver/Src/stm32f4xx_hal_rtc_ex.c ****   *         interrupt line is exclusive to the wakeup timer.
1125:./STM32F4xx_HAL_Driver/Src/stm32f4xx_hal_rtc_ex.c ****   *         There is no need in this case to check on the interrupt enable
1126:./STM32F4xx_HAL_Driver/Src/stm32f4xx_hal_rtc_ex.c ****   *         status via __HAL_RTC_WAKEUPTIMER_GET_IT_SOURCE().
1127:./STM32F4xx_HAL_Driver/Src/stm32f4xx_hal_rtc_ex.c ****   * @param  hrtc pointer to a RTC_HandleTypeDef structure that contains
1128:./STM32F4xx_HAL_Driver/Src/stm32f4xx_hal_rtc_ex.c ****   *                the configuration information for RTC.
1129:./STM32F4xx_HAL_Driver/Src/stm32f4xx_hal_rtc_ex.c ****   * @retval None
1130:./STM32F4xx_HAL_Driver/Src/stm32f4xx_hal_rtc_ex.c ****   */
1131:./STM32F4xx_HAL_Driver/Src/stm32f4xx_hal_rtc_ex.c **** void HAL_RTCEx_WakeUpTimerIRQHandler(RTC_HandleTypeDef *hrtc)
1132:./STM32F4xx_HAL_Driver/Src/stm32f4xx_hal_rtc_ex.c **** {
1133:./STM32F4xx_HAL_Driver/Src/stm32f4xx_hal_rtc_ex.c ****   /* Get the pending status of the Wakeup timer Interrupt */
1134:./STM32F4xx_HAL_Driver/Src/stm32f4xx_hal_rtc_ex.c ****   if (__HAL_RTC_WAKEUPTIMER_GET_FLAG(hrtc, RTC_FLAG_WUTF) != 0U)
1135:./STM32F4xx_HAL_Driver/Src/stm32f4xx_hal_rtc_ex.c ****   {
1136:./STM32F4xx_HAL_Driver/Src/stm32f4xx_hal_rtc_ex.c ****     /* Wakeup timer callback */
1137:./STM32F4xx_HAL_Driver/Src/stm32f4xx_hal_rtc_ex.c **** #if (USE_HAL_RTC_REGISTER_CALLBACKS == 1)
1138:./STM32F4xx_HAL_Driver/Src/stm32f4xx_hal_rtc_ex.c ****     hrtc->WakeUpTimerEventCallback(hrtc);
1139:./STM32F4xx_HAL_Driver/Src/stm32f4xx_hal_rtc_ex.c **** #else
1140:./STM32F4xx_HAL_Driver/Src/stm32f4xx_hal_rtc_ex.c ****     HAL_RTCEx_WakeUpTimerEventCallback(hrtc);
1141:./STM32F4xx_HAL_Driver/Src/stm32f4xx_hal_rtc_ex.c **** #endif /* USE_HAL_RTC_REGISTER_CALLBACKS */
1142:./STM32F4xx_HAL_Driver/Src/stm32f4xx_hal_rtc_ex.c **** 
1143:./STM32F4xx_HAL_Driver/Src/stm32f4xx_hal_rtc_ex.c ****     /* Clear the Wakeup timer interrupt pending bit */
1144:./STM32F4xx_HAL_Driver/Src/stm32f4xx_hal_rtc_ex.c ****     __HAL_RTC_WAKEUPTIMER_CLEAR_FLAG(hrtc, RTC_FLAG_WUTF);
1145:./STM32F4xx_HAL_Driver/Src/stm32f4xx_hal_rtc_ex.c ****   }
1146:./STM32F4xx_HAL_Driver/Src/stm32f4xx_hal_rtc_ex.c **** 
1147:./STM32F4xx_HAL_Driver/Src/stm32f4xx_hal_rtc_ex.c ****   /* Clear the EXTI's line Flag for RTC WakeUpTimer */
1148:./STM32F4xx_HAL_Driver/Src/stm32f4xx_hal_rtc_ex.c ****   __HAL_RTC_WAKEUPTIMER_EXTI_CLEAR_FLAG();
1149:./STM32F4xx_HAL_Driver/Src/stm32f4xx_hal_rtc_ex.c **** 
1150:./STM32F4xx_HAL_Driver/Src/stm32f4xx_hal_rtc_ex.c ****   /* Change RTC state */
1151:./STM32F4xx_HAL_Driver/Src/stm32f4xx_hal_rtc_ex.c ****   hrtc->State = HAL_RTC_STATE_READY;
1152:./STM32F4xx_HAL_Driver/Src/stm32f4xx_hal_rtc_ex.c **** }
1153:./STM32F4xx_HAL_Driver/Src/stm32f4xx_hal_rtc_ex.c **** 
1154:./STM32F4xx_HAL_Driver/Src/stm32f4xx_hal_rtc_ex.c **** /**
1155:./STM32F4xx_HAL_Driver/Src/stm32f4xx_hal_rtc_ex.c ****   * @brief  Wakeup Timer callback.
1156:./STM32F4xx_HAL_Driver/Src/stm32f4xx_hal_rtc_ex.c ****   * @param  hrtc pointer to a RTC_HandleTypeDef structure that contains
1157:./STM32F4xx_HAL_Driver/Src/stm32f4xx_hal_rtc_ex.c ****   *                the configuration information for RTC.
1158:./STM32F4xx_HAL_Driver/Src/stm32f4xx_hal_rtc_ex.c ****   * @retval None
1159:./STM32F4xx_HAL_Driver/Src/stm32f4xx_hal_rtc_ex.c ****   */
1160:./STM32F4xx_HAL_Driver/Src/stm32f4xx_hal_rtc_ex.c **** __weak void HAL_RTCEx_WakeUpTimerEventCallback(RTC_HandleTypeDef *hrtc)
1161:./STM32F4xx_HAL_Driver/Src/stm32f4xx_hal_rtc_ex.c **** {
 1897              		.loc 1 1161 1 is_stmt 1 view -0
ARM GAS  /tmp/cc9ZOIPt.s 			page 56


 1898              		.cfi_startproc
 1899              		@ args = 0, pretend = 0, frame = 0
 1900              		@ frame_needed = 0, uses_anonymous_args = 0
 1901              		@ link register save eliminated.
1162:./STM32F4xx_HAL_Driver/Src/stm32f4xx_hal_rtc_ex.c ****   /* Prevent unused argument(s) compilation warning */
1163:./STM32F4xx_HAL_Driver/Src/stm32f4xx_hal_rtc_ex.c ****   UNUSED(hrtc);
 1902              		.loc 1 1163 3 view .LVU662
1164:./STM32F4xx_HAL_Driver/Src/stm32f4xx_hal_rtc_ex.c **** 
1165:./STM32F4xx_HAL_Driver/Src/stm32f4xx_hal_rtc_ex.c ****   /* NOTE: This function should not be modified, when the callback is needed,
1166:./STM32F4xx_HAL_Driver/Src/stm32f4xx_hal_rtc_ex.c ****            the HAL_RTCEx_WakeUpTimerEventCallback could be implemented in the user file
1167:./STM32F4xx_HAL_Driver/Src/stm32f4xx_hal_rtc_ex.c ****    */
1168:./STM32F4xx_HAL_Driver/Src/stm32f4xx_hal_rtc_ex.c **** }
 1903              		.loc 1 1168 1 is_stmt 0 view .LVU663
 1904 0000 7047     		bx	lr
 1905              		.cfi_endproc
 1906              	.LFE233:
 1908              		.section	.text.HAL_RTCEx_WakeUpTimerIRQHandler,"ax",%progbits
 1909              		.align	1
 1910              		.global	HAL_RTCEx_WakeUpTimerIRQHandler
 1911              		.syntax unified
 1912              		.thumb
 1913              		.thumb_func
 1915              	HAL_RTCEx_WakeUpTimerIRQHandler:
 1916              	.LVL131:
 1917              	.LFB232:
1132:./STM32F4xx_HAL_Driver/Src/stm32f4xx_hal_rtc_ex.c ****   /* Get the pending status of the Wakeup timer Interrupt */
 1918              		.loc 1 1132 1 is_stmt 1 view -0
 1919              		.cfi_startproc
 1920              		@ args = 0, pretend = 0, frame = 0
 1921              		@ frame_needed = 0, uses_anonymous_args = 0
1132:./STM32F4xx_HAL_Driver/Src/stm32f4xx_hal_rtc_ex.c ****   /* Get the pending status of the Wakeup timer Interrupt */
 1922              		.loc 1 1132 1 is_stmt 0 view .LVU665
 1923 0000 10B5     		push	{r4, lr}
 1924              	.LCFI25:
 1925              		.cfi_def_cfa_offset 8
 1926              		.cfi_offset 4, -8
 1927              		.cfi_offset 14, -4
 1928 0002 0446     		mov	r4, r0
1134:./STM32F4xx_HAL_Driver/Src/stm32f4xx_hal_rtc_ex.c ****   {
 1929              		.loc 1 1134 3 is_stmt 1 view .LVU666
1134:./STM32F4xx_HAL_Driver/Src/stm32f4xx_hal_rtc_ex.c ****   {
 1930              		.loc 1 1134 7 is_stmt 0 view .LVU667
 1931 0004 0368     		ldr	r3, [r0]
 1932 0006 DB68     		ldr	r3, [r3, #12]
1134:./STM32F4xx_HAL_Driver/Src/stm32f4xx_hal_rtc_ex.c ****   {
 1933              		.loc 1 1134 6 view .LVU668
 1934 0008 13F4806F 		tst	r3, #1024
 1935 000c 06D1     		bne	.L115
 1936              	.LVL132:
 1937              	.L113:
1148:./STM32F4xx_HAL_Driver/Src/stm32f4xx_hal_rtc_ex.c **** 
 1938              		.loc 1 1148 3 is_stmt 1 view .LVU669
 1939 000e 084B     		ldr	r3, .L116
 1940 0010 4FF48002 		mov	r2, #4194304
 1941 0014 5A61     		str	r2, [r3, #20]
1151:./STM32F4xx_HAL_Driver/Src/stm32f4xx_hal_rtc_ex.c **** }
 1942              		.loc 1 1151 3 view .LVU670
ARM GAS  /tmp/cc9ZOIPt.s 			page 57


1151:./STM32F4xx_HAL_Driver/Src/stm32f4xx_hal_rtc_ex.c **** }
 1943              		.loc 1 1151 15 is_stmt 0 view .LVU671
 1944 0016 0123     		movs	r3, #1
 1945 0018 6377     		strb	r3, [r4, #29]
1152:./STM32F4xx_HAL_Driver/Src/stm32f4xx_hal_rtc_ex.c **** 
 1946              		.loc 1 1152 1 view .LVU672
 1947 001a 10BD     		pop	{r4, pc}
 1948              	.LVL133:
 1949              	.L115:
1140:./STM32F4xx_HAL_Driver/Src/stm32f4xx_hal_rtc_ex.c **** #endif /* USE_HAL_RTC_REGISTER_CALLBACKS */
 1950              		.loc 1 1140 5 is_stmt 1 view .LVU673
 1951 001c FFF7FEFF 		bl	HAL_RTCEx_WakeUpTimerEventCallback
 1952              	.LVL134:
1144:./STM32F4xx_HAL_Driver/Src/stm32f4xx_hal_rtc_ex.c ****   }
 1953              		.loc 1 1144 5 view .LVU674
 1954 0020 2268     		ldr	r2, [r4]
 1955 0022 D368     		ldr	r3, [r2, #12]
 1956 0024 DBB2     		uxtb	r3, r3
 1957 0026 63F49063 		orn	r3, r3, #1152
 1958 002a D360     		str	r3, [r2, #12]
 1959 002c EFE7     		b	.L113
 1960              	.L117:
 1961 002e 00BF     		.align	2
 1962              	.L116:
 1963 0030 003C0140 		.word	1073822720
 1964              		.cfi_endproc
 1965              	.LFE232:
 1967              		.section	.text.HAL_RTCEx_PollForWakeUpTimerEvent,"ax",%progbits
 1968              		.align	1
 1969              		.global	HAL_RTCEx_PollForWakeUpTimerEvent
 1970              		.syntax unified
 1971              		.thumb
 1972              		.thumb_func
 1974              	HAL_RTCEx_PollForWakeUpTimerEvent:
 1975              	.LVL135:
 1976              	.LFB234:
1169:./STM32F4xx_HAL_Driver/Src/stm32f4xx_hal_rtc_ex.c **** 
1170:./STM32F4xx_HAL_Driver/Src/stm32f4xx_hal_rtc_ex.c **** /**
1171:./STM32F4xx_HAL_Driver/Src/stm32f4xx_hal_rtc_ex.c ****   * @brief  Handles Wakeup Timer Polling.
1172:./STM32F4xx_HAL_Driver/Src/stm32f4xx_hal_rtc_ex.c ****   * @param  hrtc pointer to a RTC_HandleTypeDef structure that contains
1173:./STM32F4xx_HAL_Driver/Src/stm32f4xx_hal_rtc_ex.c ****   *                the configuration information for RTC.
1174:./STM32F4xx_HAL_Driver/Src/stm32f4xx_hal_rtc_ex.c ****   * @param  Timeout Timeout duration
1175:./STM32F4xx_HAL_Driver/Src/stm32f4xx_hal_rtc_ex.c ****   * @retval HAL status
1176:./STM32F4xx_HAL_Driver/Src/stm32f4xx_hal_rtc_ex.c ****   */
1177:./STM32F4xx_HAL_Driver/Src/stm32f4xx_hal_rtc_ex.c **** HAL_StatusTypeDef HAL_RTCEx_PollForWakeUpTimerEvent(RTC_HandleTypeDef *hrtc, uint32_t Timeout)
1178:./STM32F4xx_HAL_Driver/Src/stm32f4xx_hal_rtc_ex.c **** {
 1977              		.loc 1 1178 1 view -0
 1978              		.cfi_startproc
 1979              		@ args = 0, pretend = 0, frame = 0
 1980              		@ frame_needed = 0, uses_anonymous_args = 0
 1981              		.loc 1 1178 1 is_stmt 0 view .LVU676
 1982 0000 70B5     		push	{r4, r5, r6, lr}
 1983              	.LCFI26:
 1984              		.cfi_def_cfa_offset 16
 1985              		.cfi_offset 4, -16
 1986              		.cfi_offset 5, -12
 1987              		.cfi_offset 6, -8
ARM GAS  /tmp/cc9ZOIPt.s 			page 58


 1988              		.cfi_offset 14, -4
 1989 0002 0446     		mov	r4, r0
 1990 0004 0D46     		mov	r5, r1
1179:./STM32F4xx_HAL_Driver/Src/stm32f4xx_hal_rtc_ex.c ****   uint32_t tickstart = 0U;
 1991              		.loc 1 1179 3 is_stmt 1 view .LVU677
 1992              	.LVL136:
1180:./STM32F4xx_HAL_Driver/Src/stm32f4xx_hal_rtc_ex.c **** 
1181:./STM32F4xx_HAL_Driver/Src/stm32f4xx_hal_rtc_ex.c ****   /* Get tick */
1182:./STM32F4xx_HAL_Driver/Src/stm32f4xx_hal_rtc_ex.c ****   tickstart = HAL_GetTick();
 1993              		.loc 1 1182 3 view .LVU678
 1994              		.loc 1 1182 15 is_stmt 0 view .LVU679
 1995 0006 FFF7FEFF 		bl	HAL_GetTick
 1996              	.LVL137:
 1997              		.loc 1 1182 15 view .LVU680
 1998 000a 0646     		mov	r6, r0
 1999              	.LVL138:
1183:./STM32F4xx_HAL_Driver/Src/stm32f4xx_hal_rtc_ex.c **** 
1184:./STM32F4xx_HAL_Driver/Src/stm32f4xx_hal_rtc_ex.c ****   while (__HAL_RTC_WAKEUPTIMER_GET_FLAG(hrtc, RTC_FLAG_WUTF) == 0U)
 2000              		.loc 1 1184 3 is_stmt 1 view .LVU681
 2001              	.L120:
 2002              		.loc 1 1184 62 view .LVU682
 2003              		.loc 1 1184 10 is_stmt 0 view .LVU683
 2004 000c 2368     		ldr	r3, [r4]
 2005 000e DA68     		ldr	r2, [r3, #12]
 2006              		.loc 1 1184 62 view .LVU684
 2007 0010 12F4806F 		tst	r2, #1024
 2008 0014 0BD1     		bne	.L125
1185:./STM32F4xx_HAL_Driver/Src/stm32f4xx_hal_rtc_ex.c ****   {
1186:./STM32F4xx_HAL_Driver/Src/stm32f4xx_hal_rtc_ex.c ****     if (Timeout != HAL_MAX_DELAY)
 2009              		.loc 1 1186 5 is_stmt 1 view .LVU685
 2010              		.loc 1 1186 8 is_stmt 0 view .LVU686
 2011 0016 B5F1FF3F 		cmp	r5, #-1
 2012 001a F7D0     		beq	.L120
1187:./STM32F4xx_HAL_Driver/Src/stm32f4xx_hal_rtc_ex.c ****     {
1188:./STM32F4xx_HAL_Driver/Src/stm32f4xx_hal_rtc_ex.c ****       if ((Timeout == 0U) || ((HAL_GetTick() - tickstart) > Timeout))
 2013              		.loc 1 1188 7 is_stmt 1 view .LVU687
 2014              		.loc 1 1188 10 is_stmt 0 view .LVU688
 2015 001c 25B1     		cbz	r5, .L121
 2016              		.loc 1 1188 32 discriminator 1 view .LVU689
 2017 001e FFF7FEFF 		bl	HAL_GetTick
 2018              	.LVL139:
 2019              		.loc 1 1188 46 discriminator 1 view .LVU690
 2020 0022 801B     		subs	r0, r0, r6
 2021              		.loc 1 1188 27 discriminator 1 view .LVU691
 2022 0024 A842     		cmp	r0, r5
 2023 0026 F1D9     		bls	.L120
 2024              	.L121:
1189:./STM32F4xx_HAL_Driver/Src/stm32f4xx_hal_rtc_ex.c ****       {
1190:./STM32F4xx_HAL_Driver/Src/stm32f4xx_hal_rtc_ex.c ****         hrtc->State = HAL_RTC_STATE_TIMEOUT;
 2025              		.loc 1 1190 9 is_stmt 1 view .LVU692
 2026              		.loc 1 1190 21 is_stmt 0 view .LVU693
 2027 0028 0320     		movs	r0, #3
 2028 002a 6077     		strb	r0, [r4, #29]
1191:./STM32F4xx_HAL_Driver/Src/stm32f4xx_hal_rtc_ex.c ****         return HAL_TIMEOUT;
 2029              		.loc 1 1191 9 is_stmt 1 view .LVU694
 2030              		.loc 1 1191 16 is_stmt 0 view .LVU695
 2031 002c 07E0     		b	.L122
ARM GAS  /tmp/cc9ZOIPt.s 			page 59


 2032              	.L125:
1192:./STM32F4xx_HAL_Driver/Src/stm32f4xx_hal_rtc_ex.c ****       }
1193:./STM32F4xx_HAL_Driver/Src/stm32f4xx_hal_rtc_ex.c ****     }
1194:./STM32F4xx_HAL_Driver/Src/stm32f4xx_hal_rtc_ex.c ****   }
1195:./STM32F4xx_HAL_Driver/Src/stm32f4xx_hal_rtc_ex.c **** 
1196:./STM32F4xx_HAL_Driver/Src/stm32f4xx_hal_rtc_ex.c ****   /* Clear the Wakeup timer Flag */
1197:./STM32F4xx_HAL_Driver/Src/stm32f4xx_hal_rtc_ex.c ****   __HAL_RTC_WAKEUPTIMER_CLEAR_FLAG(hrtc, RTC_FLAG_WUTF);
 2033              		.loc 1 1197 3 is_stmt 1 view .LVU696
 2034 002e DA68     		ldr	r2, [r3, #12]
 2035 0030 D2B2     		uxtb	r2, r2
 2036 0032 62F49062 		orn	r2, r2, #1152
 2037 0036 DA60     		str	r2, [r3, #12]
1198:./STM32F4xx_HAL_Driver/Src/stm32f4xx_hal_rtc_ex.c **** 
1199:./STM32F4xx_HAL_Driver/Src/stm32f4xx_hal_rtc_ex.c ****   /* Change RTC state */
1200:./STM32F4xx_HAL_Driver/Src/stm32f4xx_hal_rtc_ex.c ****   hrtc->State = HAL_RTC_STATE_READY;
 2038              		.loc 1 1200 3 view .LVU697
 2039              		.loc 1 1200 15 is_stmt 0 view .LVU698
 2040 0038 0123     		movs	r3, #1
 2041 003a 6377     		strb	r3, [r4, #29]
1201:./STM32F4xx_HAL_Driver/Src/stm32f4xx_hal_rtc_ex.c **** 
1202:./STM32F4xx_HAL_Driver/Src/stm32f4xx_hal_rtc_ex.c ****   return HAL_OK;
 2042              		.loc 1 1202 3 is_stmt 1 view .LVU699
 2043              		.loc 1 1202 10 is_stmt 0 view .LVU700
 2044 003c 0020     		movs	r0, #0
 2045              	.L122:
1203:./STM32F4xx_HAL_Driver/Src/stm32f4xx_hal_rtc_ex.c **** }
 2046              		.loc 1 1203 1 view .LVU701
 2047 003e 70BD     		pop	{r4, r5, r6, pc}
 2048              		.loc 1 1203 1 view .LVU702
 2049              		.cfi_endproc
 2050              	.LFE234:
 2052              		.section	.text.HAL_RTCEx_BKUPWrite,"ax",%progbits
 2053              		.align	1
 2054              		.global	HAL_RTCEx_BKUPWrite
 2055              		.syntax unified
 2056              		.thumb
 2057              		.thumb_func
 2059              	HAL_RTCEx_BKUPWrite:
 2060              	.LVL140:
 2061              	.LFB235:
1204:./STM32F4xx_HAL_Driver/Src/stm32f4xx_hal_rtc_ex.c **** 
1205:./STM32F4xx_HAL_Driver/Src/stm32f4xx_hal_rtc_ex.c **** /**
1206:./STM32F4xx_HAL_Driver/Src/stm32f4xx_hal_rtc_ex.c ****   * @}
1207:./STM32F4xx_HAL_Driver/Src/stm32f4xx_hal_rtc_ex.c ****   */
1208:./STM32F4xx_HAL_Driver/Src/stm32f4xx_hal_rtc_ex.c **** 
1209:./STM32F4xx_HAL_Driver/Src/stm32f4xx_hal_rtc_ex.c **** /** @defgroup RTCEx_Exported_Functions_Group3 Extended Peripheral Control functions
1210:./STM32F4xx_HAL_Driver/Src/stm32f4xx_hal_rtc_ex.c ****   * @brief    Extended Peripheral Control functions
1211:./STM32F4xx_HAL_Driver/Src/stm32f4xx_hal_rtc_ex.c ****   *
1212:./STM32F4xx_HAL_Driver/Src/stm32f4xx_hal_rtc_ex.c **** @verbatim
1213:./STM32F4xx_HAL_Driver/Src/stm32f4xx_hal_rtc_ex.c ****  ===============================================================================
1214:./STM32F4xx_HAL_Driver/Src/stm32f4xx_hal_rtc_ex.c ****               ##### Extended Peripheral Control functions #####
1215:./STM32F4xx_HAL_Driver/Src/stm32f4xx_hal_rtc_ex.c ****  ===============================================================================
1216:./STM32F4xx_HAL_Driver/Src/stm32f4xx_hal_rtc_ex.c ****     [..]
1217:./STM32F4xx_HAL_Driver/Src/stm32f4xx_hal_rtc_ex.c ****     This subsection provides functions allowing to
1218:./STM32F4xx_HAL_Driver/Src/stm32f4xx_hal_rtc_ex.c ****       (+) Write a data in a specified RTC Backup data register
1219:./STM32F4xx_HAL_Driver/Src/stm32f4xx_hal_rtc_ex.c ****       (+) Read a data in a specified RTC Backup data register
1220:./STM32F4xx_HAL_Driver/Src/stm32f4xx_hal_rtc_ex.c ****       (+) Set the Coarse calibration parameters.
ARM GAS  /tmp/cc9ZOIPt.s 			page 60


1221:./STM32F4xx_HAL_Driver/Src/stm32f4xx_hal_rtc_ex.c ****       (+) Deactivate the Coarse calibration parameters
1222:./STM32F4xx_HAL_Driver/Src/stm32f4xx_hal_rtc_ex.c ****       (+) Set the Smooth calibration parameters.
1223:./STM32F4xx_HAL_Driver/Src/stm32f4xx_hal_rtc_ex.c ****       (+) Configure the Synchronization Shift Control Settings.
1224:./STM32F4xx_HAL_Driver/Src/stm32f4xx_hal_rtc_ex.c ****       (+) Configure the Calibration Pinout (RTC_CALIB) Selection (1Hz or 512Hz).
1225:./STM32F4xx_HAL_Driver/Src/stm32f4xx_hal_rtc_ex.c ****       (+) Deactivate the Calibration Pinout (RTC_CALIB) Selection (1Hz or 512Hz).
1226:./STM32F4xx_HAL_Driver/Src/stm32f4xx_hal_rtc_ex.c ****       (+) Enable the RTC reference clock detection.
1227:./STM32F4xx_HAL_Driver/Src/stm32f4xx_hal_rtc_ex.c ****       (+) Disable the RTC reference clock detection.
1228:./STM32F4xx_HAL_Driver/Src/stm32f4xx_hal_rtc_ex.c ****       (+) Enable the Bypass Shadow feature.
1229:./STM32F4xx_HAL_Driver/Src/stm32f4xx_hal_rtc_ex.c ****       (+) Disable the Bypass Shadow feature.
1230:./STM32F4xx_HAL_Driver/Src/stm32f4xx_hal_rtc_ex.c **** 
1231:./STM32F4xx_HAL_Driver/Src/stm32f4xx_hal_rtc_ex.c **** @endverbatim
1232:./STM32F4xx_HAL_Driver/Src/stm32f4xx_hal_rtc_ex.c ****   * @{
1233:./STM32F4xx_HAL_Driver/Src/stm32f4xx_hal_rtc_ex.c ****   */
1234:./STM32F4xx_HAL_Driver/Src/stm32f4xx_hal_rtc_ex.c **** 
1235:./STM32F4xx_HAL_Driver/Src/stm32f4xx_hal_rtc_ex.c **** /**
1236:./STM32F4xx_HAL_Driver/Src/stm32f4xx_hal_rtc_ex.c ****   * @brief  Writes a data in a specified RTC Backup data register.
1237:./STM32F4xx_HAL_Driver/Src/stm32f4xx_hal_rtc_ex.c ****   * @param  hrtc pointer to a RTC_HandleTypeDef structure that contains
1238:./STM32F4xx_HAL_Driver/Src/stm32f4xx_hal_rtc_ex.c ****   *                the configuration information for RTC.
1239:./STM32F4xx_HAL_Driver/Src/stm32f4xx_hal_rtc_ex.c ****   * @param  BackupRegister RTC Backup data Register number.
1240:./STM32F4xx_HAL_Driver/Src/stm32f4xx_hal_rtc_ex.c ****   *          This parameter can be: RTC_BKP_DRx (where x can be from 0 to 19)
1241:./STM32F4xx_HAL_Driver/Src/stm32f4xx_hal_rtc_ex.c ****   *                                 to specify the register.
1242:./STM32F4xx_HAL_Driver/Src/stm32f4xx_hal_rtc_ex.c ****   * @param  Data Data to be written in the specified RTC Backup data register.
1243:./STM32F4xx_HAL_Driver/Src/stm32f4xx_hal_rtc_ex.c ****   * @retval None
1244:./STM32F4xx_HAL_Driver/Src/stm32f4xx_hal_rtc_ex.c ****   */
1245:./STM32F4xx_HAL_Driver/Src/stm32f4xx_hal_rtc_ex.c **** void HAL_RTCEx_BKUPWrite(RTC_HandleTypeDef *hrtc, uint32_t BackupRegister, uint32_t Data)
1246:./STM32F4xx_HAL_Driver/Src/stm32f4xx_hal_rtc_ex.c **** {
 2062              		.loc 1 1246 1 is_stmt 1 view -0
 2063              		.cfi_startproc
 2064              		@ args = 0, pretend = 0, frame = 0
 2065              		@ frame_needed = 0, uses_anonymous_args = 0
 2066              		@ link register save eliminated.
1247:./STM32F4xx_HAL_Driver/Src/stm32f4xx_hal_rtc_ex.c ****   uint32_t tmp = 0U;
 2067              		.loc 1 1247 3 view .LVU704
1248:./STM32F4xx_HAL_Driver/Src/stm32f4xx_hal_rtc_ex.c **** 
1249:./STM32F4xx_HAL_Driver/Src/stm32f4xx_hal_rtc_ex.c ****   /* Check the parameters */
1250:./STM32F4xx_HAL_Driver/Src/stm32f4xx_hal_rtc_ex.c ****   assert_param(IS_RTC_BKP(BackupRegister));
 2068              		.loc 1 1250 3 view .LVU705
1251:./STM32F4xx_HAL_Driver/Src/stm32f4xx_hal_rtc_ex.c **** 
1252:./STM32F4xx_HAL_Driver/Src/stm32f4xx_hal_rtc_ex.c ****   tmp = (uint32_t) & (hrtc->Instance->BKP0R);
 2069              		.loc 1 1252 3 view .LVU706
 2070              		.loc 1 1252 27 is_stmt 0 view .LVU707
 2071 0000 0368     		ldr	r3, [r0]
 2072              		.loc 1 1252 20 view .LVU708
 2073 0002 5033     		adds	r3, r3, #80
 2074              	.LVL141:
1253:./STM32F4xx_HAL_Driver/Src/stm32f4xx_hal_rtc_ex.c ****   tmp += (BackupRegister * 4U);
 2075              		.loc 1 1253 3 is_stmt 1 view .LVU709
1254:./STM32F4xx_HAL_Driver/Src/stm32f4xx_hal_rtc_ex.c **** 
1255:./STM32F4xx_HAL_Driver/Src/stm32f4xx_hal_rtc_ex.c ****   /* Write the specified register */
1256:./STM32F4xx_HAL_Driver/Src/stm32f4xx_hal_rtc_ex.c ****   *(__IO uint32_t *)tmp = (uint32_t)Data;
 2076              		.loc 1 1256 3 view .LVU710
 2077              		.loc 1 1256 25 is_stmt 0 view .LVU711
 2078 0004 43F82120 		str	r2, [r3, r1, lsl #2]
1257:./STM32F4xx_HAL_Driver/Src/stm32f4xx_hal_rtc_ex.c **** }
 2079              		.loc 1 1257 1 view .LVU712
 2080 0008 7047     		bx	lr
 2081              		.cfi_endproc
ARM GAS  /tmp/cc9ZOIPt.s 			page 61


 2082              	.LFE235:
 2084              		.section	.text.HAL_RTCEx_BKUPRead,"ax",%progbits
 2085              		.align	1
 2086              		.global	HAL_RTCEx_BKUPRead
 2087              		.syntax unified
 2088              		.thumb
 2089              		.thumb_func
 2091              	HAL_RTCEx_BKUPRead:
 2092              	.LVL142:
 2093              	.LFB236:
1258:./STM32F4xx_HAL_Driver/Src/stm32f4xx_hal_rtc_ex.c **** 
1259:./STM32F4xx_HAL_Driver/Src/stm32f4xx_hal_rtc_ex.c **** /**
1260:./STM32F4xx_HAL_Driver/Src/stm32f4xx_hal_rtc_ex.c ****   * @brief  Reads data from the specified RTC Backup data Register.
1261:./STM32F4xx_HAL_Driver/Src/stm32f4xx_hal_rtc_ex.c ****   * @param  hrtc pointer to a RTC_HandleTypeDef structure that contains
1262:./STM32F4xx_HAL_Driver/Src/stm32f4xx_hal_rtc_ex.c ****   *                the configuration information for RTC.
1263:./STM32F4xx_HAL_Driver/Src/stm32f4xx_hal_rtc_ex.c ****   * @param  BackupRegister RTC Backup data Register number.
1264:./STM32F4xx_HAL_Driver/Src/stm32f4xx_hal_rtc_ex.c ****   *          This parameter can be: RTC_BKP_DRx (where x can be from 0 to 19)
1265:./STM32F4xx_HAL_Driver/Src/stm32f4xx_hal_rtc_ex.c ****   *                                 to specify the register.
1266:./STM32F4xx_HAL_Driver/Src/stm32f4xx_hal_rtc_ex.c ****   * @retval Read value
1267:./STM32F4xx_HAL_Driver/Src/stm32f4xx_hal_rtc_ex.c ****   */
1268:./STM32F4xx_HAL_Driver/Src/stm32f4xx_hal_rtc_ex.c **** uint32_t HAL_RTCEx_BKUPRead(RTC_HandleTypeDef *hrtc, uint32_t BackupRegister)
1269:./STM32F4xx_HAL_Driver/Src/stm32f4xx_hal_rtc_ex.c **** {
 2094              		.loc 1 1269 1 is_stmt 1 view -0
 2095              		.cfi_startproc
 2096              		@ args = 0, pretend = 0, frame = 0
 2097              		@ frame_needed = 0, uses_anonymous_args = 0
 2098              		@ link register save eliminated.
1270:./STM32F4xx_HAL_Driver/Src/stm32f4xx_hal_rtc_ex.c ****   uint32_t tmp = 0U;
 2099              		.loc 1 1270 3 view .LVU714
1271:./STM32F4xx_HAL_Driver/Src/stm32f4xx_hal_rtc_ex.c **** 
1272:./STM32F4xx_HAL_Driver/Src/stm32f4xx_hal_rtc_ex.c ****   /* Check the parameters */
1273:./STM32F4xx_HAL_Driver/Src/stm32f4xx_hal_rtc_ex.c ****   assert_param(IS_RTC_BKP(BackupRegister));
 2100              		.loc 1 1273 3 view .LVU715
1274:./STM32F4xx_HAL_Driver/Src/stm32f4xx_hal_rtc_ex.c **** 
1275:./STM32F4xx_HAL_Driver/Src/stm32f4xx_hal_rtc_ex.c ****   tmp = (uint32_t) & (hrtc->Instance->BKP0R);
 2101              		.loc 1 1275 3 view .LVU716
 2102              		.loc 1 1275 27 is_stmt 0 view .LVU717
 2103 0000 0368     		ldr	r3, [r0]
 2104              		.loc 1 1275 20 view .LVU718
 2105 0002 5033     		adds	r3, r3, #80
 2106              	.LVL143:
1276:./STM32F4xx_HAL_Driver/Src/stm32f4xx_hal_rtc_ex.c ****   tmp += (BackupRegister * 4U);
 2107              		.loc 1 1276 3 is_stmt 1 view .LVU719
1277:./STM32F4xx_HAL_Driver/Src/stm32f4xx_hal_rtc_ex.c **** 
1278:./STM32F4xx_HAL_Driver/Src/stm32f4xx_hal_rtc_ex.c ****   /* Read the specified register */
1279:./STM32F4xx_HAL_Driver/Src/stm32f4xx_hal_rtc_ex.c ****   return (*(__IO uint32_t *)tmp);
 2108              		.loc 1 1279 3 view .LVU720
 2109              		.loc 1 1279 11 is_stmt 0 view .LVU721
 2110 0004 53F82100 		ldr	r0, [r3, r1, lsl #2]
 2111              	.LVL144:
1280:./STM32F4xx_HAL_Driver/Src/stm32f4xx_hal_rtc_ex.c **** }
 2112              		.loc 1 1280 1 view .LVU722
 2113 0008 7047     		bx	lr
 2114              		.cfi_endproc
 2115              	.LFE236:
 2117              		.section	.text.HAL_RTCEx_SetCoarseCalib,"ax",%progbits
 2118              		.align	1
ARM GAS  /tmp/cc9ZOIPt.s 			page 62


 2119              		.global	HAL_RTCEx_SetCoarseCalib
 2120              		.syntax unified
 2121              		.thumb
 2122              		.thumb_func
 2124              	HAL_RTCEx_SetCoarseCalib:
 2125              	.LVL145:
 2126              	.LFB237:
1281:./STM32F4xx_HAL_Driver/Src/stm32f4xx_hal_rtc_ex.c **** 
1282:./STM32F4xx_HAL_Driver/Src/stm32f4xx_hal_rtc_ex.c **** /**
1283:./STM32F4xx_HAL_Driver/Src/stm32f4xx_hal_rtc_ex.c ****   * @brief  Sets the Coarse calibration parameters.
1284:./STM32F4xx_HAL_Driver/Src/stm32f4xx_hal_rtc_ex.c ****   * @param  hrtc pointer to a RTC_HandleTypeDef structure that contains
1285:./STM32F4xx_HAL_Driver/Src/stm32f4xx_hal_rtc_ex.c ****   *                the configuration information for RTC.
1286:./STM32F4xx_HAL_Driver/Src/stm32f4xx_hal_rtc_ex.c ****   * @param  CalibSign Specifies the sign of the coarse calibration value.
1287:./STM32F4xx_HAL_Driver/Src/stm32f4xx_hal_rtc_ex.c ****   *          This parameter can be  one of the following values:
1288:./STM32F4xx_HAL_Driver/Src/stm32f4xx_hal_rtc_ex.c ****   *             @arg RTC_CALIBSIGN_POSITIVE: The value sign is positive
1289:./STM32F4xx_HAL_Driver/Src/stm32f4xx_hal_rtc_ex.c ****   *             @arg RTC_CALIBSIGN_NEGATIVE: The value sign is negative
1290:./STM32F4xx_HAL_Driver/Src/stm32f4xx_hal_rtc_ex.c ****   * @param  Value value of coarse calibration expressed in ppm (coded on 5 bits).
1291:./STM32F4xx_HAL_Driver/Src/stm32f4xx_hal_rtc_ex.c ****   *
1292:./STM32F4xx_HAL_Driver/Src/stm32f4xx_hal_rtc_ex.c ****   * @note   This Calibration value should be between 0 and 63 when using negative
1293:./STM32F4xx_HAL_Driver/Src/stm32f4xx_hal_rtc_ex.c ****   *         sign with a 2-ppm step.
1294:./STM32F4xx_HAL_Driver/Src/stm32f4xx_hal_rtc_ex.c ****   *
1295:./STM32F4xx_HAL_Driver/Src/stm32f4xx_hal_rtc_ex.c ****   * @note   This Calibration value should be between 0 and 126 when using positive
1296:./STM32F4xx_HAL_Driver/Src/stm32f4xx_hal_rtc_ex.c ****   *         sign with a 4-ppm step.
1297:./STM32F4xx_HAL_Driver/Src/stm32f4xx_hal_rtc_ex.c ****   * @retval HAL status
1298:./STM32F4xx_HAL_Driver/Src/stm32f4xx_hal_rtc_ex.c ****   */
1299:./STM32F4xx_HAL_Driver/Src/stm32f4xx_hal_rtc_ex.c **** HAL_StatusTypeDef HAL_RTCEx_SetCoarseCalib(RTC_HandleTypeDef *hrtc, uint32_t CalibSign, uint32_t Va
1300:./STM32F4xx_HAL_Driver/Src/stm32f4xx_hal_rtc_ex.c **** {
 2127              		.loc 1 1300 1 is_stmt 1 view -0
 2128              		.cfi_startproc
 2129              		@ args = 0, pretend = 0, frame = 0
 2130              		@ frame_needed = 0, uses_anonymous_args = 0
1301:./STM32F4xx_HAL_Driver/Src/stm32f4xx_hal_rtc_ex.c ****   HAL_StatusTypeDef status;
 2131              		.loc 1 1301 3 view .LVU724
1302:./STM32F4xx_HAL_Driver/Src/stm32f4xx_hal_rtc_ex.c **** 
1303:./STM32F4xx_HAL_Driver/Src/stm32f4xx_hal_rtc_ex.c ****   /* Check the parameters */
1304:./STM32F4xx_HAL_Driver/Src/stm32f4xx_hal_rtc_ex.c ****   assert_param(IS_RTC_CALIB_SIGN(CalibSign));
 2132              		.loc 1 1304 3 view .LVU725
1305:./STM32F4xx_HAL_Driver/Src/stm32f4xx_hal_rtc_ex.c ****   assert_param(IS_RTC_CALIB_VALUE(Value));
 2133              		.loc 1 1305 3 view .LVU726
1306:./STM32F4xx_HAL_Driver/Src/stm32f4xx_hal_rtc_ex.c **** 
1307:./STM32F4xx_HAL_Driver/Src/stm32f4xx_hal_rtc_ex.c ****   /* Process Locked */
1308:./STM32F4xx_HAL_Driver/Src/stm32f4xx_hal_rtc_ex.c ****   __HAL_LOCK(hrtc);
 2134              		.loc 1 1308 3 view .LVU727
 2135              		.loc 1 1308 3 view .LVU728
 2136 0000 037F     		ldrb	r3, [r0, #28]	@ zero_extendqisi2
 2137 0002 012B     		cmp	r3, #1
 2138 0004 26D0     		beq	.L131
1300:./STM32F4xx_HAL_Driver/Src/stm32f4xx_hal_rtc_ex.c ****   HAL_StatusTypeDef status;
 2139              		.loc 1 1300 1 is_stmt 0 discriminator 2 view .LVU729
 2140 0006 70B5     		push	{r4, r5, r6, lr}
 2141              	.LCFI27:
 2142              		.cfi_def_cfa_offset 16
 2143              		.cfi_offset 4, -16
 2144              		.cfi_offset 5, -12
 2145              		.cfi_offset 6, -8
 2146              		.cfi_offset 14, -4
 2147 0008 0446     		mov	r4, r0
ARM GAS  /tmp/cc9ZOIPt.s 			page 63


 2148 000a 0E46     		mov	r6, r1
 2149 000c 1546     		mov	r5, r2
 2150              		.loc 1 1308 3 is_stmt 1 discriminator 2 view .LVU730
 2151 000e 0123     		movs	r3, #1
 2152 0010 0377     		strb	r3, [r0, #28]
 2153              		.loc 1 1308 3 discriminator 2 view .LVU731
1309:./STM32F4xx_HAL_Driver/Src/stm32f4xx_hal_rtc_ex.c **** 
1310:./STM32F4xx_HAL_Driver/Src/stm32f4xx_hal_rtc_ex.c ****   hrtc->State = HAL_RTC_STATE_BUSY;
 2154              		.loc 1 1310 3 discriminator 2 view .LVU732
 2155              		.loc 1 1310 15 is_stmt 0 discriminator 2 view .LVU733
 2156 0012 0223     		movs	r3, #2
 2157 0014 4377     		strb	r3, [r0, #29]
1311:./STM32F4xx_HAL_Driver/Src/stm32f4xx_hal_rtc_ex.c **** 
1312:./STM32F4xx_HAL_Driver/Src/stm32f4xx_hal_rtc_ex.c ****   /* Disable the write protection for RTC registers */
1313:./STM32F4xx_HAL_Driver/Src/stm32f4xx_hal_rtc_ex.c ****   __HAL_RTC_WRITEPROTECTION_DISABLE(hrtc);
 2158              		.loc 1 1313 3 is_stmt 1 discriminator 2 view .LVU734
 2159              		.loc 1 1313 3 discriminator 2 view .LVU735
 2160 0016 0368     		ldr	r3, [r0]
 2161 0018 CA22     		movs	r2, #202
 2162              	.LVL146:
 2163              		.loc 1 1313 3 is_stmt 0 discriminator 2 view .LVU736
 2164 001a 5A62     		str	r2, [r3, #36]
 2165              		.loc 1 1313 3 is_stmt 1 discriminator 2 view .LVU737
 2166 001c 0368     		ldr	r3, [r0]
 2167 001e 5322     		movs	r2, #83
 2168 0020 5A62     		str	r2, [r3, #36]
 2169              		.loc 1 1313 3 discriminator 2 view .LVU738
1314:./STM32F4xx_HAL_Driver/Src/stm32f4xx_hal_rtc_ex.c **** 
1315:./STM32F4xx_HAL_Driver/Src/stm32f4xx_hal_rtc_ex.c ****   /* Enter Initialization mode */
1316:./STM32F4xx_HAL_Driver/Src/stm32f4xx_hal_rtc_ex.c ****   status = RTC_EnterInitMode(hrtc);
 2170              		.loc 1 1316 3 discriminator 2 view .LVU739
 2171              		.loc 1 1316 12 is_stmt 0 discriminator 2 view .LVU740
 2172 0022 FFF7FEFF 		bl	RTC_EnterInitMode
 2173              	.LVL147:
1317:./STM32F4xx_HAL_Driver/Src/stm32f4xx_hal_rtc_ex.c **** 
1318:./STM32F4xx_HAL_Driver/Src/stm32f4xx_hal_rtc_ex.c ****   if (status == HAL_OK)
 2174              		.loc 1 1318 3 is_stmt 1 discriminator 2 view .LVU741
 2175              		.loc 1 1318 6 is_stmt 0 discriminator 2 view .LVU742
 2176 0026 28B1     		cbz	r0, .L136
 2177              	.LVL148:
 2178              	.L130:
1319:./STM32F4xx_HAL_Driver/Src/stm32f4xx_hal_rtc_ex.c ****   {
1320:./STM32F4xx_HAL_Driver/Src/stm32f4xx_hal_rtc_ex.c ****     /* Enable the Coarse Calibration */
1321:./STM32F4xx_HAL_Driver/Src/stm32f4xx_hal_rtc_ex.c ****     __HAL_RTC_COARSE_CALIB_ENABLE(hrtc);
1322:./STM32F4xx_HAL_Driver/Src/stm32f4xx_hal_rtc_ex.c **** 
1323:./STM32F4xx_HAL_Driver/Src/stm32f4xx_hal_rtc_ex.c ****     /* Set the coarse calibration value */
1324:./STM32F4xx_HAL_Driver/Src/stm32f4xx_hal_rtc_ex.c ****     hrtc->Instance->CALIBR = (uint32_t)(CalibSign | Value);
1325:./STM32F4xx_HAL_Driver/Src/stm32f4xx_hal_rtc_ex.c **** 
1326:./STM32F4xx_HAL_Driver/Src/stm32f4xx_hal_rtc_ex.c ****     /* Exit Initialization mode */
1327:./STM32F4xx_HAL_Driver/Src/stm32f4xx_hal_rtc_ex.c ****     status = RTC_ExitInitMode(hrtc);
1328:./STM32F4xx_HAL_Driver/Src/stm32f4xx_hal_rtc_ex.c ****   }
1329:./STM32F4xx_HAL_Driver/Src/stm32f4xx_hal_rtc_ex.c **** 
1330:./STM32F4xx_HAL_Driver/Src/stm32f4xx_hal_rtc_ex.c ****   if (status == HAL_OK)
1331:./STM32F4xx_HAL_Driver/Src/stm32f4xx_hal_rtc_ex.c ****   {
1332:./STM32F4xx_HAL_Driver/Src/stm32f4xx_hal_rtc_ex.c ****     hrtc->State = HAL_RTC_STATE_READY;
1333:./STM32F4xx_HAL_Driver/Src/stm32f4xx_hal_rtc_ex.c ****   }
1334:./STM32F4xx_HAL_Driver/Src/stm32f4xx_hal_rtc_ex.c **** 
ARM GAS  /tmp/cc9ZOIPt.s 			page 64


1335:./STM32F4xx_HAL_Driver/Src/stm32f4xx_hal_rtc_ex.c ****   /* Enable the write protection for RTC registers */
1336:./STM32F4xx_HAL_Driver/Src/stm32f4xx_hal_rtc_ex.c ****   __HAL_RTC_WRITEPROTECTION_ENABLE(hrtc);
 2179              		.loc 1 1336 3 is_stmt 1 view .LVU743
 2180              		.loc 1 1336 3 view .LVU744
 2181 0028 2368     		ldr	r3, [r4]
 2182 002a FF22     		movs	r2, #255
 2183 002c 5A62     		str	r2, [r3, #36]
 2184              		.loc 1 1336 3 view .LVU745
1337:./STM32F4xx_HAL_Driver/Src/stm32f4xx_hal_rtc_ex.c **** 
1338:./STM32F4xx_HAL_Driver/Src/stm32f4xx_hal_rtc_ex.c ****   /* Process Unlocked */
1339:./STM32F4xx_HAL_Driver/Src/stm32f4xx_hal_rtc_ex.c ****   __HAL_UNLOCK(hrtc);
 2185              		.loc 1 1339 3 view .LVU746
 2186              		.loc 1 1339 3 view .LVU747
 2187 002e 0023     		movs	r3, #0
 2188 0030 2377     		strb	r3, [r4, #28]
 2189              		.loc 1 1339 3 view .LVU748
1340:./STM32F4xx_HAL_Driver/Src/stm32f4xx_hal_rtc_ex.c **** 
1341:./STM32F4xx_HAL_Driver/Src/stm32f4xx_hal_rtc_ex.c ****   return status;
 2190              		.loc 1 1341 3 view .LVU749
1342:./STM32F4xx_HAL_Driver/Src/stm32f4xx_hal_rtc_ex.c **** }
 2191              		.loc 1 1342 1 is_stmt 0 view .LVU750
 2192 0032 70BD     		pop	{r4, r5, r6, pc}
 2193              	.LVL149:
 2194              	.L136:
1321:./STM32F4xx_HAL_Driver/Src/stm32f4xx_hal_rtc_ex.c **** 
 2195              		.loc 1 1321 5 is_stmt 1 view .LVU751
 2196 0034 2268     		ldr	r2, [r4]
 2197 0036 9368     		ldr	r3, [r2, #8]
 2198 0038 43F08003 		orr	r3, r3, #128
 2199 003c 9360     		str	r3, [r2, #8]
1324:./STM32F4xx_HAL_Driver/Src/stm32f4xx_hal_rtc_ex.c **** 
 2200              		.loc 1 1324 5 view .LVU752
1324:./STM32F4xx_HAL_Driver/Src/stm32f4xx_hal_rtc_ex.c **** 
 2201              		.loc 1 1324 9 is_stmt 0 view .LVU753
 2202 003e 2368     		ldr	r3, [r4]
1324:./STM32F4xx_HAL_Driver/Src/stm32f4xx_hal_rtc_ex.c **** 
 2203              		.loc 1 1324 51 view .LVU754
 2204 0040 3543     		orrs	r5, r5, r6
 2205              	.LVL150:
1324:./STM32F4xx_HAL_Driver/Src/stm32f4xx_hal_rtc_ex.c **** 
 2206              		.loc 1 1324 28 view .LVU755
 2207 0042 9D61     		str	r5, [r3, #24]
1327:./STM32F4xx_HAL_Driver/Src/stm32f4xx_hal_rtc_ex.c ****   }
 2208              		.loc 1 1327 5 is_stmt 1 view .LVU756
1327:./STM32F4xx_HAL_Driver/Src/stm32f4xx_hal_rtc_ex.c ****   }
 2209              		.loc 1 1327 14 is_stmt 0 view .LVU757
 2210 0044 2046     		mov	r0, r4
 2211              	.LVL151:
1327:./STM32F4xx_HAL_Driver/Src/stm32f4xx_hal_rtc_ex.c ****   }
 2212              		.loc 1 1327 14 view .LVU758
 2213 0046 FFF7FEFF 		bl	RTC_ExitInitMode
 2214              	.LVL152:
1330:./STM32F4xx_HAL_Driver/Src/stm32f4xx_hal_rtc_ex.c ****   {
 2215              		.loc 1 1330 3 is_stmt 1 view .LVU759
1330:./STM32F4xx_HAL_Driver/Src/stm32f4xx_hal_rtc_ex.c ****   {
 2216              		.loc 1 1330 6 is_stmt 0 view .LVU760
 2217 004a 0028     		cmp	r0, #0
ARM GAS  /tmp/cc9ZOIPt.s 			page 65


 2218 004c ECD1     		bne	.L130
1332:./STM32F4xx_HAL_Driver/Src/stm32f4xx_hal_rtc_ex.c ****   }
 2219              		.loc 1 1332 5 is_stmt 1 view .LVU761
1332:./STM32F4xx_HAL_Driver/Src/stm32f4xx_hal_rtc_ex.c ****   }
 2220              		.loc 1 1332 17 is_stmt 0 view .LVU762
 2221 004e 0123     		movs	r3, #1
 2222 0050 6377     		strb	r3, [r4, #29]
 2223 0052 E9E7     		b	.L130
 2224              	.LVL153:
 2225              	.L131:
 2226              	.LCFI28:
 2227              		.cfi_def_cfa_offset 0
 2228              		.cfi_restore 4
 2229              		.cfi_restore 5
 2230              		.cfi_restore 6
 2231              		.cfi_restore 14
1308:./STM32F4xx_HAL_Driver/Src/stm32f4xx_hal_rtc_ex.c **** 
 2232              		.loc 1 1308 3 view .LVU763
 2233 0054 0220     		movs	r0, #2
 2234              	.LVL154:
 2235              		.loc 1 1342 1 view .LVU764
 2236 0056 7047     		bx	lr
 2237              		.cfi_endproc
 2238              	.LFE237:
 2240              		.section	.text.HAL_RTCEx_DeactivateCoarseCalib,"ax",%progbits
 2241              		.align	1
 2242              		.global	HAL_RTCEx_DeactivateCoarseCalib
 2243              		.syntax unified
 2244              		.thumb
 2245              		.thumb_func
 2247              	HAL_RTCEx_DeactivateCoarseCalib:
 2248              	.LVL155:
 2249              	.LFB238:
1343:./STM32F4xx_HAL_Driver/Src/stm32f4xx_hal_rtc_ex.c **** 
1344:./STM32F4xx_HAL_Driver/Src/stm32f4xx_hal_rtc_ex.c **** /**
1345:./STM32F4xx_HAL_Driver/Src/stm32f4xx_hal_rtc_ex.c ****   * @brief  Deactivates the Coarse calibration parameters.
1346:./STM32F4xx_HAL_Driver/Src/stm32f4xx_hal_rtc_ex.c ****   * @param  hrtc pointer to a RTC_HandleTypeDef structure that contains
1347:./STM32F4xx_HAL_Driver/Src/stm32f4xx_hal_rtc_ex.c ****   *                the configuration information for RTC.
1348:./STM32F4xx_HAL_Driver/Src/stm32f4xx_hal_rtc_ex.c ****   * @retval HAL status
1349:./STM32F4xx_HAL_Driver/Src/stm32f4xx_hal_rtc_ex.c ****   */
1350:./STM32F4xx_HAL_Driver/Src/stm32f4xx_hal_rtc_ex.c **** HAL_StatusTypeDef HAL_RTCEx_DeactivateCoarseCalib(RTC_HandleTypeDef *hrtc)
1351:./STM32F4xx_HAL_Driver/Src/stm32f4xx_hal_rtc_ex.c **** {
 2250              		.loc 1 1351 1 is_stmt 1 view -0
 2251              		.cfi_startproc
 2252              		@ args = 0, pretend = 0, frame = 0
 2253              		@ frame_needed = 0, uses_anonymous_args = 0
1352:./STM32F4xx_HAL_Driver/Src/stm32f4xx_hal_rtc_ex.c ****   HAL_StatusTypeDef status;
 2254              		.loc 1 1352 3 view .LVU766
1353:./STM32F4xx_HAL_Driver/Src/stm32f4xx_hal_rtc_ex.c **** 
1354:./STM32F4xx_HAL_Driver/Src/stm32f4xx_hal_rtc_ex.c ****   /* Process Locked */
1355:./STM32F4xx_HAL_Driver/Src/stm32f4xx_hal_rtc_ex.c ****   __HAL_LOCK(hrtc);
 2255              		.loc 1 1355 3 view .LVU767
 2256              		.loc 1 1355 3 view .LVU768
 2257 0000 037F     		ldrb	r3, [r0, #28]	@ zero_extendqisi2
 2258 0002 012B     		cmp	r3, #1
 2259 0004 21D0     		beq	.L140
1351:./STM32F4xx_HAL_Driver/Src/stm32f4xx_hal_rtc_ex.c ****   HAL_StatusTypeDef status;
ARM GAS  /tmp/cc9ZOIPt.s 			page 66


 2260              		.loc 1 1351 1 is_stmt 0 discriminator 2 view .LVU769
 2261 0006 10B5     		push	{r4, lr}
 2262              	.LCFI29:
 2263              		.cfi_def_cfa_offset 8
 2264              		.cfi_offset 4, -8
 2265              		.cfi_offset 14, -4
 2266 0008 0446     		mov	r4, r0
 2267              		.loc 1 1355 3 is_stmt 1 discriminator 2 view .LVU770
 2268 000a 0123     		movs	r3, #1
 2269 000c 0377     		strb	r3, [r0, #28]
 2270              		.loc 1 1355 3 discriminator 2 view .LVU771
1356:./STM32F4xx_HAL_Driver/Src/stm32f4xx_hal_rtc_ex.c **** 
1357:./STM32F4xx_HAL_Driver/Src/stm32f4xx_hal_rtc_ex.c ****   hrtc->State = HAL_RTC_STATE_BUSY;
 2271              		.loc 1 1357 3 discriminator 2 view .LVU772
 2272              		.loc 1 1357 15 is_stmt 0 discriminator 2 view .LVU773
 2273 000e 0223     		movs	r3, #2
 2274 0010 4377     		strb	r3, [r0, #29]
1358:./STM32F4xx_HAL_Driver/Src/stm32f4xx_hal_rtc_ex.c **** 
1359:./STM32F4xx_HAL_Driver/Src/stm32f4xx_hal_rtc_ex.c ****   /* Disable the write protection for RTC registers */
1360:./STM32F4xx_HAL_Driver/Src/stm32f4xx_hal_rtc_ex.c ****   __HAL_RTC_WRITEPROTECTION_DISABLE(hrtc);
 2275              		.loc 1 1360 3 is_stmt 1 discriminator 2 view .LVU774
 2276              		.loc 1 1360 3 discriminator 2 view .LVU775
 2277 0012 0368     		ldr	r3, [r0]
 2278 0014 CA22     		movs	r2, #202
 2279 0016 5A62     		str	r2, [r3, #36]
 2280              		.loc 1 1360 3 discriminator 2 view .LVU776
 2281 0018 0368     		ldr	r3, [r0]
 2282 001a 5322     		movs	r2, #83
 2283 001c 5A62     		str	r2, [r3, #36]
 2284              		.loc 1 1360 3 discriminator 2 view .LVU777
1361:./STM32F4xx_HAL_Driver/Src/stm32f4xx_hal_rtc_ex.c **** 
1362:./STM32F4xx_HAL_Driver/Src/stm32f4xx_hal_rtc_ex.c ****   /* Enter Initialization mode */
1363:./STM32F4xx_HAL_Driver/Src/stm32f4xx_hal_rtc_ex.c ****   status = RTC_EnterInitMode(hrtc);
 2285              		.loc 1 1363 3 discriminator 2 view .LVU778
 2286              		.loc 1 1363 12 is_stmt 0 discriminator 2 view .LVU779
 2287 001e FFF7FEFF 		bl	RTC_EnterInitMode
 2288              	.LVL156:
1364:./STM32F4xx_HAL_Driver/Src/stm32f4xx_hal_rtc_ex.c **** 
1365:./STM32F4xx_HAL_Driver/Src/stm32f4xx_hal_rtc_ex.c ****   if (status == HAL_OK)
 2289              		.loc 1 1365 3 is_stmt 1 discriminator 2 view .LVU780
 2290              		.loc 1 1365 6 is_stmt 0 discriminator 2 view .LVU781
 2291 0022 28B1     		cbz	r0, .L145
 2292              	.L139:
 2293              	.LVL157:
1366:./STM32F4xx_HAL_Driver/Src/stm32f4xx_hal_rtc_ex.c ****   {
1367:./STM32F4xx_HAL_Driver/Src/stm32f4xx_hal_rtc_ex.c ****     /* Disable the Coarse Calibration */
1368:./STM32F4xx_HAL_Driver/Src/stm32f4xx_hal_rtc_ex.c ****     __HAL_RTC_COARSE_CALIB_DISABLE(hrtc);
1369:./STM32F4xx_HAL_Driver/Src/stm32f4xx_hal_rtc_ex.c **** 
1370:./STM32F4xx_HAL_Driver/Src/stm32f4xx_hal_rtc_ex.c ****     /* Exit Initialization mode */
1371:./STM32F4xx_HAL_Driver/Src/stm32f4xx_hal_rtc_ex.c ****     status = RTC_ExitInitMode(hrtc);
1372:./STM32F4xx_HAL_Driver/Src/stm32f4xx_hal_rtc_ex.c ****   }
1373:./STM32F4xx_HAL_Driver/Src/stm32f4xx_hal_rtc_ex.c **** 
1374:./STM32F4xx_HAL_Driver/Src/stm32f4xx_hal_rtc_ex.c ****   if (status == HAL_OK)
1375:./STM32F4xx_HAL_Driver/Src/stm32f4xx_hal_rtc_ex.c ****   {
1376:./STM32F4xx_HAL_Driver/Src/stm32f4xx_hal_rtc_ex.c ****     hrtc->State = HAL_RTC_STATE_READY;
1377:./STM32F4xx_HAL_Driver/Src/stm32f4xx_hal_rtc_ex.c ****   }
1378:./STM32F4xx_HAL_Driver/Src/stm32f4xx_hal_rtc_ex.c **** 
ARM GAS  /tmp/cc9ZOIPt.s 			page 67


1379:./STM32F4xx_HAL_Driver/Src/stm32f4xx_hal_rtc_ex.c ****   /* Enable the write protection for RTC registers */
1380:./STM32F4xx_HAL_Driver/Src/stm32f4xx_hal_rtc_ex.c ****   __HAL_RTC_WRITEPROTECTION_ENABLE(hrtc);
 2294              		.loc 1 1380 3 is_stmt 1 view .LVU782
 2295              		.loc 1 1380 3 view .LVU783
 2296 0024 2368     		ldr	r3, [r4]
 2297 0026 FF22     		movs	r2, #255
 2298 0028 5A62     		str	r2, [r3, #36]
 2299              		.loc 1 1380 3 view .LVU784
1381:./STM32F4xx_HAL_Driver/Src/stm32f4xx_hal_rtc_ex.c **** 
1382:./STM32F4xx_HAL_Driver/Src/stm32f4xx_hal_rtc_ex.c ****   /* Process Unlocked */
1383:./STM32F4xx_HAL_Driver/Src/stm32f4xx_hal_rtc_ex.c ****   __HAL_UNLOCK(hrtc);
 2300              		.loc 1 1383 3 view .LVU785
 2301              		.loc 1 1383 3 view .LVU786
 2302 002a 0023     		movs	r3, #0
 2303 002c 2377     		strb	r3, [r4, #28]
 2304              		.loc 1 1383 3 view .LVU787
1384:./STM32F4xx_HAL_Driver/Src/stm32f4xx_hal_rtc_ex.c **** 
1385:./STM32F4xx_HAL_Driver/Src/stm32f4xx_hal_rtc_ex.c ****   return status;
 2305              		.loc 1 1385 3 view .LVU788
1386:./STM32F4xx_HAL_Driver/Src/stm32f4xx_hal_rtc_ex.c **** }
 2306              		.loc 1 1386 1 is_stmt 0 view .LVU789
 2307 002e 10BD     		pop	{r4, pc}
 2308              	.LVL158:
 2309              	.L145:
1368:./STM32F4xx_HAL_Driver/Src/stm32f4xx_hal_rtc_ex.c **** 
 2310              		.loc 1 1368 5 is_stmt 1 view .LVU790
 2311 0030 2268     		ldr	r2, [r4]
 2312 0032 9368     		ldr	r3, [r2, #8]
 2313 0034 23F08003 		bic	r3, r3, #128
 2314 0038 9360     		str	r3, [r2, #8]
1371:./STM32F4xx_HAL_Driver/Src/stm32f4xx_hal_rtc_ex.c ****   }
 2315              		.loc 1 1371 5 view .LVU791
1371:./STM32F4xx_HAL_Driver/Src/stm32f4xx_hal_rtc_ex.c ****   }
 2316              		.loc 1 1371 14 is_stmt 0 view .LVU792
 2317 003a 2046     		mov	r0, r4
 2318              	.LVL159:
1371:./STM32F4xx_HAL_Driver/Src/stm32f4xx_hal_rtc_ex.c ****   }
 2319              		.loc 1 1371 14 view .LVU793
 2320 003c FFF7FEFF 		bl	RTC_ExitInitMode
 2321              	.LVL160:
1374:./STM32F4xx_HAL_Driver/Src/stm32f4xx_hal_rtc_ex.c ****   {
 2322              		.loc 1 1374 3 is_stmt 1 view .LVU794
1374:./STM32F4xx_HAL_Driver/Src/stm32f4xx_hal_rtc_ex.c ****   {
 2323              		.loc 1 1374 6 is_stmt 0 view .LVU795
 2324 0040 0028     		cmp	r0, #0
 2325 0042 EFD1     		bne	.L139
1376:./STM32F4xx_HAL_Driver/Src/stm32f4xx_hal_rtc_ex.c ****   }
 2326              		.loc 1 1376 5 is_stmt 1 view .LVU796
1376:./STM32F4xx_HAL_Driver/Src/stm32f4xx_hal_rtc_ex.c ****   }
 2327              		.loc 1 1376 17 is_stmt 0 view .LVU797
 2328 0044 0123     		movs	r3, #1
 2329 0046 6377     		strb	r3, [r4, #29]
 2330 0048 ECE7     		b	.L139
 2331              	.LVL161:
 2332              	.L140:
 2333              	.LCFI30:
 2334              		.cfi_def_cfa_offset 0
ARM GAS  /tmp/cc9ZOIPt.s 			page 68


 2335              		.cfi_restore 4
 2336              		.cfi_restore 14
1355:./STM32F4xx_HAL_Driver/Src/stm32f4xx_hal_rtc_ex.c **** 
 2337              		.loc 1 1355 3 view .LVU798
 2338 004a 0220     		movs	r0, #2
 2339              	.LVL162:
 2340              		.loc 1 1386 1 view .LVU799
 2341 004c 7047     		bx	lr
 2342              		.cfi_endproc
 2343              	.LFE238:
 2345              		.section	.text.HAL_RTCEx_SetSmoothCalib,"ax",%progbits
 2346              		.align	1
 2347              		.global	HAL_RTCEx_SetSmoothCalib
 2348              		.syntax unified
 2349              		.thumb
 2350              		.thumb_func
 2352              	HAL_RTCEx_SetSmoothCalib:
 2353              	.LVL163:
 2354              	.LFB239:
1387:./STM32F4xx_HAL_Driver/Src/stm32f4xx_hal_rtc_ex.c **** 
1388:./STM32F4xx_HAL_Driver/Src/stm32f4xx_hal_rtc_ex.c **** /**
1389:./STM32F4xx_HAL_Driver/Src/stm32f4xx_hal_rtc_ex.c ****   * @brief  Sets the Smooth calibration parameters.
1390:./STM32F4xx_HAL_Driver/Src/stm32f4xx_hal_rtc_ex.c ****   * @param  hrtc pointer to a RTC_HandleTypeDef structure that contains
1391:./STM32F4xx_HAL_Driver/Src/stm32f4xx_hal_rtc_ex.c ****   *                the configuration information for RTC.
1392:./STM32F4xx_HAL_Driver/Src/stm32f4xx_hal_rtc_ex.c ****   * @param  SmoothCalibPeriod Select the Smooth Calibration Period.
1393:./STM32F4xx_HAL_Driver/Src/stm32f4xx_hal_rtc_ex.c ****   *          This parameter can be can be one of the following values:
1394:./STM32F4xx_HAL_Driver/Src/stm32f4xx_hal_rtc_ex.c ****   *             @arg RTC_SMOOTHCALIB_PERIOD_32SEC: The smooth calibration period is 32s.
1395:./STM32F4xx_HAL_Driver/Src/stm32f4xx_hal_rtc_ex.c ****   *             @arg RTC_SMOOTHCALIB_PERIOD_16SEC: The smooth calibration period is 16s.
1396:./STM32F4xx_HAL_Driver/Src/stm32f4xx_hal_rtc_ex.c ****   *             @arg RTC_SMOOTHCALIB_PERIOD_8SEC: The smooth calibration period is 8s.
1397:./STM32F4xx_HAL_Driver/Src/stm32f4xx_hal_rtc_ex.c ****   * @param  SmoothCalibPlusPulses Select to Set or reset the CALP bit.
1398:./STM32F4xx_HAL_Driver/Src/stm32f4xx_hal_rtc_ex.c ****   *          This parameter can be one of the following values:
1399:./STM32F4xx_HAL_Driver/Src/stm32f4xx_hal_rtc_ex.c ****   *             @arg RTC_SMOOTHCALIB_PLUSPULSES_SET: Add one RTCCLK pulse every 2*11 pulses.
1400:./STM32F4xx_HAL_Driver/Src/stm32f4xx_hal_rtc_ex.c ****   *             @arg RTC_SMOOTHCALIB_PLUSPULSES_RESET: No RTCCLK pulses are added.
1401:./STM32F4xx_HAL_Driver/Src/stm32f4xx_hal_rtc_ex.c ****   * @param  SmoothCalibMinusPulsesValue Select the value of CALM[8:0] bits.
1402:./STM32F4xx_HAL_Driver/Src/stm32f4xx_hal_rtc_ex.c ****   *          This parameter can be one any value from 0 to 0x000001FF.
1403:./STM32F4xx_HAL_Driver/Src/stm32f4xx_hal_rtc_ex.c ****   * @note   To deactivate the smooth calibration, the field SmoothCalibPlusPulses
1404:./STM32F4xx_HAL_Driver/Src/stm32f4xx_hal_rtc_ex.c ****   *         must be equal to SMOOTHCALIB_PLUSPULSES_RESET and the field
1405:./STM32F4xx_HAL_Driver/Src/stm32f4xx_hal_rtc_ex.c ****   *         SmoothCalibMinusPulsesValue must be equal to 0.
1406:./STM32F4xx_HAL_Driver/Src/stm32f4xx_hal_rtc_ex.c ****   * @retval HAL status
1407:./STM32F4xx_HAL_Driver/Src/stm32f4xx_hal_rtc_ex.c ****   */
1408:./STM32F4xx_HAL_Driver/Src/stm32f4xx_hal_rtc_ex.c **** HAL_StatusTypeDef HAL_RTCEx_SetSmoothCalib(RTC_HandleTypeDef *hrtc, uint32_t SmoothCalibPeriod, uin
1409:./STM32F4xx_HAL_Driver/Src/stm32f4xx_hal_rtc_ex.c **** {
 2355              		.loc 1 1409 1 is_stmt 1 view -0
 2356              		.cfi_startproc
 2357              		@ args = 0, pretend = 0, frame = 0
 2358              		@ frame_needed = 0, uses_anonymous_args = 0
 2359              		.loc 1 1409 1 is_stmt 0 view .LVU801
 2360 0000 2DE9F041 		push	{r4, r5, r6, r7, r8, lr}
 2361              	.LCFI31:
 2362              		.cfi_def_cfa_offset 24
 2363              		.cfi_offset 4, -24
 2364              		.cfi_offset 5, -20
 2365              		.cfi_offset 6, -16
 2366              		.cfi_offset 7, -12
 2367              		.cfi_offset 8, -8
 2368              		.cfi_offset 14, -4
 2369 0004 1E46     		mov	r6, r3
ARM GAS  /tmp/cc9ZOIPt.s 			page 69


1410:./STM32F4xx_HAL_Driver/Src/stm32f4xx_hal_rtc_ex.c ****   uint32_t tickstart = 0U;
 2370              		.loc 1 1410 3 is_stmt 1 view .LVU802
 2371              	.LVL164:
1411:./STM32F4xx_HAL_Driver/Src/stm32f4xx_hal_rtc_ex.c **** 
1412:./STM32F4xx_HAL_Driver/Src/stm32f4xx_hal_rtc_ex.c ****   /* Check the parameters */
1413:./STM32F4xx_HAL_Driver/Src/stm32f4xx_hal_rtc_ex.c ****   assert_param(IS_RTC_SMOOTH_CALIB_PERIOD(SmoothCalibPeriod));
 2372              		.loc 1 1413 3 view .LVU803
1414:./STM32F4xx_HAL_Driver/Src/stm32f4xx_hal_rtc_ex.c ****   assert_param(IS_RTC_SMOOTH_CALIB_PLUS(SmoothCalibPlusPulses));
 2373              		.loc 1 1414 3 view .LVU804
1415:./STM32F4xx_HAL_Driver/Src/stm32f4xx_hal_rtc_ex.c ****   assert_param(IS_RTC_SMOOTH_CALIB_MINUS(SmoothCalibMinusPulsesValue));
 2374              		.loc 1 1415 3 view .LVU805
1416:./STM32F4xx_HAL_Driver/Src/stm32f4xx_hal_rtc_ex.c **** 
1417:./STM32F4xx_HAL_Driver/Src/stm32f4xx_hal_rtc_ex.c ****   /* Process Locked */
1418:./STM32F4xx_HAL_Driver/Src/stm32f4xx_hal_rtc_ex.c ****   __HAL_LOCK(hrtc);
 2375              		.loc 1 1418 3 view .LVU806
 2376              		.loc 1 1418 3 view .LVU807
 2377 0006 037F     		ldrb	r3, [r0, #28]	@ zero_extendqisi2
 2378              	.LVL165:
 2379              		.loc 1 1418 3 is_stmt 0 view .LVU808
 2380 0008 012B     		cmp	r3, #1
 2381 000a 35D0     		beq	.L151
 2382 000c 0446     		mov	r4, r0
 2383 000e 0D46     		mov	r5, r1
 2384 0010 1746     		mov	r7, r2
 2385              		.loc 1 1418 3 is_stmt 1 discriminator 2 view .LVU809
 2386 0012 0123     		movs	r3, #1
 2387 0014 0377     		strb	r3, [r0, #28]
 2388              		.loc 1 1418 3 discriminator 2 view .LVU810
1419:./STM32F4xx_HAL_Driver/Src/stm32f4xx_hal_rtc_ex.c **** 
1420:./STM32F4xx_HAL_Driver/Src/stm32f4xx_hal_rtc_ex.c ****   hrtc->State = HAL_RTC_STATE_BUSY;
 2389              		.loc 1 1420 3 discriminator 2 view .LVU811
 2390              		.loc 1 1420 15 is_stmt 0 discriminator 2 view .LVU812
 2391 0016 0223     		movs	r3, #2
 2392 0018 4377     		strb	r3, [r0, #29]
1421:./STM32F4xx_HAL_Driver/Src/stm32f4xx_hal_rtc_ex.c **** 
1422:./STM32F4xx_HAL_Driver/Src/stm32f4xx_hal_rtc_ex.c ****   /* Disable the write protection for RTC registers */
1423:./STM32F4xx_HAL_Driver/Src/stm32f4xx_hal_rtc_ex.c ****   __HAL_RTC_WRITEPROTECTION_DISABLE(hrtc);
 2393              		.loc 1 1423 3 is_stmt 1 discriminator 2 view .LVU813
 2394              		.loc 1 1423 3 discriminator 2 view .LVU814
 2395 001a 0368     		ldr	r3, [r0]
 2396 001c CA22     		movs	r2, #202
 2397              	.LVL166:
 2398              		.loc 1 1423 3 is_stmt 0 discriminator 2 view .LVU815
 2399 001e 5A62     		str	r2, [r3, #36]
 2400              		.loc 1 1423 3 is_stmt 1 discriminator 2 view .LVU816
 2401 0020 0368     		ldr	r3, [r0]
 2402 0022 5322     		movs	r2, #83
 2403 0024 5A62     		str	r2, [r3, #36]
 2404              		.loc 1 1423 3 discriminator 2 view .LVU817
1424:./STM32F4xx_HAL_Driver/Src/stm32f4xx_hal_rtc_ex.c **** 
1425:./STM32F4xx_HAL_Driver/Src/stm32f4xx_hal_rtc_ex.c ****   /* check if a calibration is pending*/
1426:./STM32F4xx_HAL_Driver/Src/stm32f4xx_hal_rtc_ex.c ****   if ((hrtc->Instance->ISR & RTC_ISR_RECALPF) != 0U)
 2405              		.loc 1 1426 3 discriminator 2 view .LVU818
 2406              		.loc 1 1426 12 is_stmt 0 discriminator 2 view .LVU819
 2407 0026 0368     		ldr	r3, [r0]
 2408              		.loc 1 1426 22 discriminator 2 view .LVU820
 2409 0028 DB68     		ldr	r3, [r3, #12]
ARM GAS  /tmp/cc9ZOIPt.s 			page 70


 2410              		.loc 1 1426 6 discriminator 2 view .LVU821
 2411 002a 13F4803F 		tst	r3, #65536
 2412 002e 0CD1     		bne	.L153
 2413              	.LVL167:
 2414              	.L148:
1427:./STM32F4xx_HAL_Driver/Src/stm32f4xx_hal_rtc_ex.c ****   {
1428:./STM32F4xx_HAL_Driver/Src/stm32f4xx_hal_rtc_ex.c ****     /* Get tick */
1429:./STM32F4xx_HAL_Driver/Src/stm32f4xx_hal_rtc_ex.c ****     tickstart = HAL_GetTick();
1430:./STM32F4xx_HAL_Driver/Src/stm32f4xx_hal_rtc_ex.c **** 
1431:./STM32F4xx_HAL_Driver/Src/stm32f4xx_hal_rtc_ex.c ****     /* check if a calibration is pending*/
1432:./STM32F4xx_HAL_Driver/Src/stm32f4xx_hal_rtc_ex.c ****     while ((hrtc->Instance->ISR & RTC_ISR_RECALPF) != 0U)
1433:./STM32F4xx_HAL_Driver/Src/stm32f4xx_hal_rtc_ex.c ****     {
1434:./STM32F4xx_HAL_Driver/Src/stm32f4xx_hal_rtc_ex.c ****       if ((HAL_GetTick() - tickstart) > RTC_TIMEOUT_VALUE)
1435:./STM32F4xx_HAL_Driver/Src/stm32f4xx_hal_rtc_ex.c ****       {
1436:./STM32F4xx_HAL_Driver/Src/stm32f4xx_hal_rtc_ex.c ****         /* Enable the write protection for RTC registers */
1437:./STM32F4xx_HAL_Driver/Src/stm32f4xx_hal_rtc_ex.c ****         __HAL_RTC_WRITEPROTECTION_ENABLE(hrtc);
1438:./STM32F4xx_HAL_Driver/Src/stm32f4xx_hal_rtc_ex.c **** 
1439:./STM32F4xx_HAL_Driver/Src/stm32f4xx_hal_rtc_ex.c ****         /* Change RTC state */
1440:./STM32F4xx_HAL_Driver/Src/stm32f4xx_hal_rtc_ex.c ****         hrtc->State = HAL_RTC_STATE_TIMEOUT;
1441:./STM32F4xx_HAL_Driver/Src/stm32f4xx_hal_rtc_ex.c **** 
1442:./STM32F4xx_HAL_Driver/Src/stm32f4xx_hal_rtc_ex.c ****         /* Process Unlocked */
1443:./STM32F4xx_HAL_Driver/Src/stm32f4xx_hal_rtc_ex.c ****         __HAL_UNLOCK(hrtc);
1444:./STM32F4xx_HAL_Driver/Src/stm32f4xx_hal_rtc_ex.c **** 
1445:./STM32F4xx_HAL_Driver/Src/stm32f4xx_hal_rtc_ex.c ****         return HAL_TIMEOUT;
1446:./STM32F4xx_HAL_Driver/Src/stm32f4xx_hal_rtc_ex.c ****       }
1447:./STM32F4xx_HAL_Driver/Src/stm32f4xx_hal_rtc_ex.c ****     }
1448:./STM32F4xx_HAL_Driver/Src/stm32f4xx_hal_rtc_ex.c ****   }
1449:./STM32F4xx_HAL_Driver/Src/stm32f4xx_hal_rtc_ex.c **** 
1450:./STM32F4xx_HAL_Driver/Src/stm32f4xx_hal_rtc_ex.c ****   /* Configure the Smooth calibration settings */
1451:./STM32F4xx_HAL_Driver/Src/stm32f4xx_hal_rtc_ex.c ****   hrtc->Instance->CALR = (uint32_t)((uint32_t)SmoothCalibPeriod     | \
 2415              		.loc 1 1451 3 is_stmt 1 view .LVU822
 2416              		.loc 1 1451 69 is_stmt 0 view .LVU823
 2417 0030 3D43     		orrs	r5, r5, r7
 2418              	.LVL168:
 2419              		.loc 1 1451 7 view .LVU824
 2420 0032 2368     		ldr	r3, [r4]
 2421              		.loc 1 1451 26 view .LVU825
 2422 0034 3543     		orrs	r5, r5, r6
 2423              		.loc 1 1451 24 view .LVU826
 2424 0036 DD63     		str	r5, [r3, #60]
1452:./STM32F4xx_HAL_Driver/Src/stm32f4xx_hal_rtc_ex.c ****                                     (uint32_t)SmoothCalibPlusPulses | \
1453:./STM32F4xx_HAL_Driver/Src/stm32f4xx_hal_rtc_ex.c ****                                     (uint32_t)SmoothCalibMinusPulsesValue);
1454:./STM32F4xx_HAL_Driver/Src/stm32f4xx_hal_rtc_ex.c **** 
1455:./STM32F4xx_HAL_Driver/Src/stm32f4xx_hal_rtc_ex.c ****   /* Enable the write protection for RTC registers */
1456:./STM32F4xx_HAL_Driver/Src/stm32f4xx_hal_rtc_ex.c ****   __HAL_RTC_WRITEPROTECTION_ENABLE(hrtc);
 2425              		.loc 1 1456 3 is_stmt 1 view .LVU827
 2426              		.loc 1 1456 3 view .LVU828
 2427 0038 2368     		ldr	r3, [r4]
 2428 003a FF22     		movs	r2, #255
 2429 003c 5A62     		str	r2, [r3, #36]
 2430              		.loc 1 1456 3 view .LVU829
1457:./STM32F4xx_HAL_Driver/Src/stm32f4xx_hal_rtc_ex.c **** 
1458:./STM32F4xx_HAL_Driver/Src/stm32f4xx_hal_rtc_ex.c ****   /* Change RTC state */
1459:./STM32F4xx_HAL_Driver/Src/stm32f4xx_hal_rtc_ex.c ****   hrtc->State = HAL_RTC_STATE_READY;
 2431              		.loc 1 1459 3 view .LVU830
 2432              		.loc 1 1459 15 is_stmt 0 view .LVU831
 2433 003e 0123     		movs	r3, #1
ARM GAS  /tmp/cc9ZOIPt.s 			page 71


 2434 0040 6377     		strb	r3, [r4, #29]
1460:./STM32F4xx_HAL_Driver/Src/stm32f4xx_hal_rtc_ex.c **** 
1461:./STM32F4xx_HAL_Driver/Src/stm32f4xx_hal_rtc_ex.c ****   /* Process Unlocked */
1462:./STM32F4xx_HAL_Driver/Src/stm32f4xx_hal_rtc_ex.c ****   __HAL_UNLOCK(hrtc);
 2435              		.loc 1 1462 3 is_stmt 1 view .LVU832
 2436              		.loc 1 1462 3 view .LVU833
 2437 0042 0020     		movs	r0, #0
 2438 0044 2077     		strb	r0, [r4, #28]
 2439              		.loc 1 1462 3 view .LVU834
1463:./STM32F4xx_HAL_Driver/Src/stm32f4xx_hal_rtc_ex.c **** 
1464:./STM32F4xx_HAL_Driver/Src/stm32f4xx_hal_rtc_ex.c ****   return HAL_OK;
 2440              		.loc 1 1464 3 view .LVU835
 2441              	.LVL169:
 2442              	.L147:
1465:./STM32F4xx_HAL_Driver/Src/stm32f4xx_hal_rtc_ex.c **** }
 2443              		.loc 1 1465 1 is_stmt 0 view .LVU836
 2444 0046 BDE8F081 		pop	{r4, r5, r6, r7, r8, pc}
 2445              	.LVL170:
 2446              	.L153:
1429:./STM32F4xx_HAL_Driver/Src/stm32f4xx_hal_rtc_ex.c **** 
 2447              		.loc 1 1429 5 is_stmt 1 view .LVU837
1429:./STM32F4xx_HAL_Driver/Src/stm32f4xx_hal_rtc_ex.c **** 
 2448              		.loc 1 1429 17 is_stmt 0 view .LVU838
 2449 004a FFF7FEFF 		bl	HAL_GetTick
 2450              	.LVL171:
1429:./STM32F4xx_HAL_Driver/Src/stm32f4xx_hal_rtc_ex.c **** 
 2451              		.loc 1 1429 17 view .LVU839
 2452 004e 8046     		mov	r8, r0
 2453              	.LVL172:
1432:./STM32F4xx_HAL_Driver/Src/stm32f4xx_hal_rtc_ex.c ****     {
 2454              		.loc 1 1432 5 is_stmt 1 view .LVU840
 2455              	.L149:
1432:./STM32F4xx_HAL_Driver/Src/stm32f4xx_hal_rtc_ex.c ****     {
 2456              		.loc 1 1432 52 view .LVU841
1432:./STM32F4xx_HAL_Driver/Src/stm32f4xx_hal_rtc_ex.c ****     {
 2457              		.loc 1 1432 17 is_stmt 0 view .LVU842
 2458 0050 2368     		ldr	r3, [r4]
1432:./STM32F4xx_HAL_Driver/Src/stm32f4xx_hal_rtc_ex.c ****     {
 2459              		.loc 1 1432 27 view .LVU843
 2460 0052 D968     		ldr	r1, [r3, #12]
1432:./STM32F4xx_HAL_Driver/Src/stm32f4xx_hal_rtc_ex.c ****     {
 2461              		.loc 1 1432 52 view .LVU844
 2462 0054 11F4803F 		tst	r1, #65536
 2463 0058 EAD0     		beq	.L148
1434:./STM32F4xx_HAL_Driver/Src/stm32f4xx_hal_rtc_ex.c ****       {
 2464              		.loc 1 1434 7 is_stmt 1 view .LVU845
1434:./STM32F4xx_HAL_Driver/Src/stm32f4xx_hal_rtc_ex.c ****       {
 2465              		.loc 1 1434 12 is_stmt 0 view .LVU846
 2466 005a FFF7FEFF 		bl	HAL_GetTick
 2467              	.LVL173:
1434:./STM32F4xx_HAL_Driver/Src/stm32f4xx_hal_rtc_ex.c ****       {
 2468              		.loc 1 1434 26 view .LVU847
 2469 005e A0EB0800 		sub	r0, r0, r8
1434:./STM32F4xx_HAL_Driver/Src/stm32f4xx_hal_rtc_ex.c ****       {
 2470              		.loc 1 1434 10 view .LVU848
 2471 0062 B0F57A7F 		cmp	r0, #1000
 2472 0066 F3D9     		bls	.L149
ARM GAS  /tmp/cc9ZOIPt.s 			page 72


1437:./STM32F4xx_HAL_Driver/Src/stm32f4xx_hal_rtc_ex.c **** 
 2473              		.loc 1 1437 9 is_stmt 1 view .LVU849
1437:./STM32F4xx_HAL_Driver/Src/stm32f4xx_hal_rtc_ex.c **** 
 2474              		.loc 1 1437 9 view .LVU850
 2475 0068 2368     		ldr	r3, [r4]
 2476 006a FF22     		movs	r2, #255
 2477 006c 5A62     		str	r2, [r3, #36]
1437:./STM32F4xx_HAL_Driver/Src/stm32f4xx_hal_rtc_ex.c **** 
 2478              		.loc 1 1437 9 view .LVU851
1440:./STM32F4xx_HAL_Driver/Src/stm32f4xx_hal_rtc_ex.c **** 
 2479              		.loc 1 1440 9 view .LVU852
1440:./STM32F4xx_HAL_Driver/Src/stm32f4xx_hal_rtc_ex.c **** 
 2480              		.loc 1 1440 21 is_stmt 0 view .LVU853
 2481 006e 0320     		movs	r0, #3
 2482 0070 6077     		strb	r0, [r4, #29]
1443:./STM32F4xx_HAL_Driver/Src/stm32f4xx_hal_rtc_ex.c **** 
 2483              		.loc 1 1443 9 is_stmt 1 view .LVU854
1443:./STM32F4xx_HAL_Driver/Src/stm32f4xx_hal_rtc_ex.c **** 
 2484              		.loc 1 1443 9 view .LVU855
 2485 0072 0023     		movs	r3, #0
 2486 0074 2377     		strb	r3, [r4, #28]
1443:./STM32F4xx_HAL_Driver/Src/stm32f4xx_hal_rtc_ex.c **** 
 2487              		.loc 1 1443 9 view .LVU856
1445:./STM32F4xx_HAL_Driver/Src/stm32f4xx_hal_rtc_ex.c ****       }
 2488              		.loc 1 1445 9 view .LVU857
1445:./STM32F4xx_HAL_Driver/Src/stm32f4xx_hal_rtc_ex.c ****       }
 2489              		.loc 1 1445 16 is_stmt 0 view .LVU858
 2490 0076 E6E7     		b	.L147
 2491              	.LVL174:
 2492              	.L151:
1418:./STM32F4xx_HAL_Driver/Src/stm32f4xx_hal_rtc_ex.c **** 
 2493              		.loc 1 1418 3 view .LVU859
 2494 0078 0220     		movs	r0, #2
 2495              	.LVL175:
1418:./STM32F4xx_HAL_Driver/Src/stm32f4xx_hal_rtc_ex.c **** 
 2496              		.loc 1 1418 3 view .LVU860
 2497 007a E4E7     		b	.L147
 2498              		.cfi_endproc
 2499              	.LFE239:
 2501              		.section	.text.HAL_RTCEx_SetSynchroShift,"ax",%progbits
 2502              		.align	1
 2503              		.global	HAL_RTCEx_SetSynchroShift
 2504              		.syntax unified
 2505              		.thumb
 2506              		.thumb_func
 2508              	HAL_RTCEx_SetSynchroShift:
 2509              	.LVL176:
 2510              	.LFB240:
1466:./STM32F4xx_HAL_Driver/Src/stm32f4xx_hal_rtc_ex.c **** 
1467:./STM32F4xx_HAL_Driver/Src/stm32f4xx_hal_rtc_ex.c **** /**
1468:./STM32F4xx_HAL_Driver/Src/stm32f4xx_hal_rtc_ex.c ****   * @brief  Configures the Synchronization Shift Control Settings.
1469:./STM32F4xx_HAL_Driver/Src/stm32f4xx_hal_rtc_ex.c ****   * @note   When REFCKON is set, firmware must not write to Shift control register.
1470:./STM32F4xx_HAL_Driver/Src/stm32f4xx_hal_rtc_ex.c ****   * @param  hrtc pointer to a RTC_HandleTypeDef structure that contains
1471:./STM32F4xx_HAL_Driver/Src/stm32f4xx_hal_rtc_ex.c ****   *                the configuration information for RTC.
1472:./STM32F4xx_HAL_Driver/Src/stm32f4xx_hal_rtc_ex.c ****   * @param  ShiftAdd1S Select to add or not 1 second to the time calendar.
1473:./STM32F4xx_HAL_Driver/Src/stm32f4xx_hal_rtc_ex.c ****   *          This parameter can be one of the following values:
1474:./STM32F4xx_HAL_Driver/Src/stm32f4xx_hal_rtc_ex.c ****   *             @arg RTC_SHIFTADD1S_SET: Add one second to the clock calendar.
ARM GAS  /tmp/cc9ZOIPt.s 			page 73


1475:./STM32F4xx_HAL_Driver/Src/stm32f4xx_hal_rtc_ex.c ****   *             @arg RTC_SHIFTADD1S_RESET: No effect.
1476:./STM32F4xx_HAL_Driver/Src/stm32f4xx_hal_rtc_ex.c ****   * @param  ShiftSubFS Select the number of Second Fractions to substitute.
1477:./STM32F4xx_HAL_Driver/Src/stm32f4xx_hal_rtc_ex.c ****   *          This parameter can be one any value from 0 to 0x7FFF.
1478:./STM32F4xx_HAL_Driver/Src/stm32f4xx_hal_rtc_ex.c ****   * @retval HAL status
1479:./STM32F4xx_HAL_Driver/Src/stm32f4xx_hal_rtc_ex.c ****   */
1480:./STM32F4xx_HAL_Driver/Src/stm32f4xx_hal_rtc_ex.c **** HAL_StatusTypeDef HAL_RTCEx_SetSynchroShift(RTC_HandleTypeDef *hrtc, uint32_t ShiftAdd1S, uint32_t 
1481:./STM32F4xx_HAL_Driver/Src/stm32f4xx_hal_rtc_ex.c **** {
 2511              		.loc 1 1481 1 is_stmt 1 view -0
 2512              		.cfi_startproc
 2513              		@ args = 0, pretend = 0, frame = 0
 2514              		@ frame_needed = 0, uses_anonymous_args = 0
1482:./STM32F4xx_HAL_Driver/Src/stm32f4xx_hal_rtc_ex.c ****   uint32_t tickstart = 0U;
 2515              		.loc 1 1482 3 view .LVU862
1483:./STM32F4xx_HAL_Driver/Src/stm32f4xx_hal_rtc_ex.c **** 
1484:./STM32F4xx_HAL_Driver/Src/stm32f4xx_hal_rtc_ex.c ****   /* Check the parameters */
1485:./STM32F4xx_HAL_Driver/Src/stm32f4xx_hal_rtc_ex.c ****   assert_param(IS_RTC_SHIFT_ADD1S(ShiftAdd1S));
 2516              		.loc 1 1485 3 view .LVU863
1486:./STM32F4xx_HAL_Driver/Src/stm32f4xx_hal_rtc_ex.c ****   assert_param(IS_RTC_SHIFT_SUBFS(ShiftSubFS));
 2517              		.loc 1 1486 3 view .LVU864
1487:./STM32F4xx_HAL_Driver/Src/stm32f4xx_hal_rtc_ex.c **** 
1488:./STM32F4xx_HAL_Driver/Src/stm32f4xx_hal_rtc_ex.c ****   /* Process Locked */
1489:./STM32F4xx_HAL_Driver/Src/stm32f4xx_hal_rtc_ex.c ****   __HAL_LOCK(hrtc);
 2518              		.loc 1 1489 3 view .LVU865
 2519              		.loc 1 1489 3 view .LVU866
 2520 0000 037F     		ldrb	r3, [r0, #28]	@ zero_extendqisi2
 2521 0002 012B     		cmp	r3, #1
 2522 0004 4FD0     		beq	.L160
1481:./STM32F4xx_HAL_Driver/Src/stm32f4xx_hal_rtc_ex.c ****   uint32_t tickstart = 0U;
 2523              		.loc 1 1481 1 is_stmt 0 discriminator 2 view .LVU867
 2524 0006 2DE9F041 		push	{r4, r5, r6, r7, r8, lr}
 2525              	.LCFI32:
 2526              		.cfi_def_cfa_offset 24
 2527              		.cfi_offset 4, -24
 2528              		.cfi_offset 5, -20
 2529              		.cfi_offset 6, -16
 2530              		.cfi_offset 7, -12
 2531              		.cfi_offset 8, -8
 2532              		.cfi_offset 14, -4
 2533 000a 0446     		mov	r4, r0
 2534 000c 8846     		mov	r8, r1
 2535 000e 1746     		mov	r7, r2
 2536              		.loc 1 1489 3 is_stmt 1 discriminator 2 view .LVU868
 2537 0010 0123     		movs	r3, #1
 2538 0012 0377     		strb	r3, [r0, #28]
 2539              		.loc 1 1489 3 discriminator 2 view .LVU869
1490:./STM32F4xx_HAL_Driver/Src/stm32f4xx_hal_rtc_ex.c **** 
1491:./STM32F4xx_HAL_Driver/Src/stm32f4xx_hal_rtc_ex.c ****   hrtc->State = HAL_RTC_STATE_BUSY;
 2540              		.loc 1 1491 3 discriminator 2 view .LVU870
 2541              		.loc 1 1491 15 is_stmt 0 discriminator 2 view .LVU871
 2542 0014 0223     		movs	r3, #2
 2543 0016 4377     		strb	r3, [r0, #29]
1492:./STM32F4xx_HAL_Driver/Src/stm32f4xx_hal_rtc_ex.c **** 
1493:./STM32F4xx_HAL_Driver/Src/stm32f4xx_hal_rtc_ex.c ****   /* Disable the write protection for RTC registers */
1494:./STM32F4xx_HAL_Driver/Src/stm32f4xx_hal_rtc_ex.c ****   __HAL_RTC_WRITEPROTECTION_DISABLE(hrtc);
 2544              		.loc 1 1494 3 is_stmt 1 discriminator 2 view .LVU872
 2545              		.loc 1 1494 3 discriminator 2 view .LVU873
 2546 0018 0368     		ldr	r3, [r0]
ARM GAS  /tmp/cc9ZOIPt.s 			page 74


 2547 001a CA22     		movs	r2, #202
 2548              	.LVL177:
 2549              		.loc 1 1494 3 is_stmt 0 discriminator 2 view .LVU874
 2550 001c 5A62     		str	r2, [r3, #36]
 2551              		.loc 1 1494 3 is_stmt 1 discriminator 2 view .LVU875
 2552 001e 0368     		ldr	r3, [r0]
 2553 0020 5322     		movs	r2, #83
 2554 0022 5A62     		str	r2, [r3, #36]
 2555              		.loc 1 1494 3 discriminator 2 view .LVU876
1495:./STM32F4xx_HAL_Driver/Src/stm32f4xx_hal_rtc_ex.c **** 
1496:./STM32F4xx_HAL_Driver/Src/stm32f4xx_hal_rtc_ex.c ****   /* Get tick */
1497:./STM32F4xx_HAL_Driver/Src/stm32f4xx_hal_rtc_ex.c ****   tickstart = HAL_GetTick();
 2556              		.loc 1 1497 3 discriminator 2 view .LVU877
 2557              		.loc 1 1497 15 is_stmt 0 discriminator 2 view .LVU878
 2558 0024 FFF7FEFF 		bl	HAL_GetTick
 2559              	.LVL178:
 2560              		.loc 1 1497 15 discriminator 2 view .LVU879
 2561 0028 0646     		mov	r6, r0
 2562              	.LVL179:
1498:./STM32F4xx_HAL_Driver/Src/stm32f4xx_hal_rtc_ex.c **** 
1499:./STM32F4xx_HAL_Driver/Src/stm32f4xx_hal_rtc_ex.c ****   /* Wait until the shift is completed */
1500:./STM32F4xx_HAL_Driver/Src/stm32f4xx_hal_rtc_ex.c ****   while ((hrtc->Instance->ISR & RTC_ISR_SHPF) != 0U)
 2563              		.loc 1 1500 3 is_stmt 1 discriminator 2 view .LVU880
 2564              	.L156:
 2565              		.loc 1 1500 47 view .LVU881
 2566              		.loc 1 1500 15 is_stmt 0 view .LVU882
 2567 002a 2368     		ldr	r3, [r4]
 2568              		.loc 1 1500 25 view .LVU883
 2569 002c DD68     		ldr	r5, [r3, #12]
 2570              		.loc 1 1500 47 view .LVU884
 2571 002e 15F0080F 		tst	r5, #8
 2572 0032 0ED0     		beq	.L165
1501:./STM32F4xx_HAL_Driver/Src/stm32f4xx_hal_rtc_ex.c ****   {
1502:./STM32F4xx_HAL_Driver/Src/stm32f4xx_hal_rtc_ex.c ****     if ((HAL_GetTick() - tickstart) > RTC_TIMEOUT_VALUE)
 2573              		.loc 1 1502 5 is_stmt 1 view .LVU885
 2574              		.loc 1 1502 10 is_stmt 0 view .LVU886
 2575 0034 FFF7FEFF 		bl	HAL_GetTick
 2576              	.LVL180:
 2577              		.loc 1 1502 24 view .LVU887
 2578 0038 831B     		subs	r3, r0, r6
 2579              		.loc 1 1502 8 view .LVU888
 2580 003a B3F57A7F 		cmp	r3, #1000
 2581 003e F4D9     		bls	.L156
1503:./STM32F4xx_HAL_Driver/Src/stm32f4xx_hal_rtc_ex.c ****     {
1504:./STM32F4xx_HAL_Driver/Src/stm32f4xx_hal_rtc_ex.c ****       /* Enable the write protection for RTC registers */
1505:./STM32F4xx_HAL_Driver/Src/stm32f4xx_hal_rtc_ex.c ****       __HAL_RTC_WRITEPROTECTION_ENABLE(hrtc);
 2582              		.loc 1 1505 7 is_stmt 1 view .LVU889
 2583              		.loc 1 1505 7 view .LVU890
 2584 0040 2368     		ldr	r3, [r4]
 2585 0042 FF22     		movs	r2, #255
 2586 0044 5A62     		str	r2, [r3, #36]
 2587              		.loc 1 1505 7 view .LVU891
1506:./STM32F4xx_HAL_Driver/Src/stm32f4xx_hal_rtc_ex.c **** 
1507:./STM32F4xx_HAL_Driver/Src/stm32f4xx_hal_rtc_ex.c ****       hrtc->State = HAL_RTC_STATE_TIMEOUT;
 2588              		.loc 1 1507 7 view .LVU892
 2589              		.loc 1 1507 19 is_stmt 0 view .LVU893
 2590 0046 0320     		movs	r0, #3
ARM GAS  /tmp/cc9ZOIPt.s 			page 75


 2591 0048 6077     		strb	r0, [r4, #29]
1508:./STM32F4xx_HAL_Driver/Src/stm32f4xx_hal_rtc_ex.c **** 
1509:./STM32F4xx_HAL_Driver/Src/stm32f4xx_hal_rtc_ex.c ****       /* Process Unlocked */
1510:./STM32F4xx_HAL_Driver/Src/stm32f4xx_hal_rtc_ex.c ****       __HAL_UNLOCK(hrtc);
 2592              		.loc 1 1510 7 is_stmt 1 view .LVU894
 2593              		.loc 1 1510 7 view .LVU895
 2594 004a 0023     		movs	r3, #0
 2595 004c 2377     		strb	r3, [r4, #28]
 2596              		.loc 1 1510 7 view .LVU896
1511:./STM32F4xx_HAL_Driver/Src/stm32f4xx_hal_rtc_ex.c **** 
1512:./STM32F4xx_HAL_Driver/Src/stm32f4xx_hal_rtc_ex.c ****       return HAL_TIMEOUT;
 2597              		.loc 1 1512 7 view .LVU897
 2598              	.LVL181:
 2599              	.L155:
1513:./STM32F4xx_HAL_Driver/Src/stm32f4xx_hal_rtc_ex.c ****     }
1514:./STM32F4xx_HAL_Driver/Src/stm32f4xx_hal_rtc_ex.c ****   }
1515:./STM32F4xx_HAL_Driver/Src/stm32f4xx_hal_rtc_ex.c **** 
1516:./STM32F4xx_HAL_Driver/Src/stm32f4xx_hal_rtc_ex.c ****   /* Check if the reference clock detection is disabled */
1517:./STM32F4xx_HAL_Driver/Src/stm32f4xx_hal_rtc_ex.c ****   if ((hrtc->Instance->CR & RTC_CR_REFCKON) == 0U)
1518:./STM32F4xx_HAL_Driver/Src/stm32f4xx_hal_rtc_ex.c ****   {
1519:./STM32F4xx_HAL_Driver/Src/stm32f4xx_hal_rtc_ex.c ****     /* Configure the Shift settings */
1520:./STM32F4xx_HAL_Driver/Src/stm32f4xx_hal_rtc_ex.c ****     hrtc->Instance->SHIFTR = (uint32_t)(uint32_t)(ShiftSubFS) | (uint32_t)(ShiftAdd1S);
1521:./STM32F4xx_HAL_Driver/Src/stm32f4xx_hal_rtc_ex.c **** 
1522:./STM32F4xx_HAL_Driver/Src/stm32f4xx_hal_rtc_ex.c ****     /* If  RTC_CR_BYPSHAD bit = 0, wait for synchro else this check is not needed */
1523:./STM32F4xx_HAL_Driver/Src/stm32f4xx_hal_rtc_ex.c ****     if ((hrtc->Instance->CR & RTC_CR_BYPSHAD) == 0U)
1524:./STM32F4xx_HAL_Driver/Src/stm32f4xx_hal_rtc_ex.c ****     {
1525:./STM32F4xx_HAL_Driver/Src/stm32f4xx_hal_rtc_ex.c ****       if (HAL_RTC_WaitForSynchro(hrtc) != HAL_OK)
1526:./STM32F4xx_HAL_Driver/Src/stm32f4xx_hal_rtc_ex.c ****       {
1527:./STM32F4xx_HAL_Driver/Src/stm32f4xx_hal_rtc_ex.c ****         /* Enable the write protection for RTC registers */
1528:./STM32F4xx_HAL_Driver/Src/stm32f4xx_hal_rtc_ex.c ****         __HAL_RTC_WRITEPROTECTION_ENABLE(hrtc);
1529:./STM32F4xx_HAL_Driver/Src/stm32f4xx_hal_rtc_ex.c **** 
1530:./STM32F4xx_HAL_Driver/Src/stm32f4xx_hal_rtc_ex.c ****         hrtc->State = HAL_RTC_STATE_ERROR;
1531:./STM32F4xx_HAL_Driver/Src/stm32f4xx_hal_rtc_ex.c **** 
1532:./STM32F4xx_HAL_Driver/Src/stm32f4xx_hal_rtc_ex.c ****         /* Process Unlocked */
1533:./STM32F4xx_HAL_Driver/Src/stm32f4xx_hal_rtc_ex.c ****         __HAL_UNLOCK(hrtc);
1534:./STM32F4xx_HAL_Driver/Src/stm32f4xx_hal_rtc_ex.c **** 
1535:./STM32F4xx_HAL_Driver/Src/stm32f4xx_hal_rtc_ex.c ****         return HAL_ERROR;
1536:./STM32F4xx_HAL_Driver/Src/stm32f4xx_hal_rtc_ex.c ****       }
1537:./STM32F4xx_HAL_Driver/Src/stm32f4xx_hal_rtc_ex.c ****     }
1538:./STM32F4xx_HAL_Driver/Src/stm32f4xx_hal_rtc_ex.c ****   }
1539:./STM32F4xx_HAL_Driver/Src/stm32f4xx_hal_rtc_ex.c ****   else
1540:./STM32F4xx_HAL_Driver/Src/stm32f4xx_hal_rtc_ex.c ****   {
1541:./STM32F4xx_HAL_Driver/Src/stm32f4xx_hal_rtc_ex.c ****     /* Enable the write protection for RTC registers */
1542:./STM32F4xx_HAL_Driver/Src/stm32f4xx_hal_rtc_ex.c ****     __HAL_RTC_WRITEPROTECTION_ENABLE(hrtc);
1543:./STM32F4xx_HAL_Driver/Src/stm32f4xx_hal_rtc_ex.c **** 
1544:./STM32F4xx_HAL_Driver/Src/stm32f4xx_hal_rtc_ex.c ****     /* Change RTC state */
1545:./STM32F4xx_HAL_Driver/Src/stm32f4xx_hal_rtc_ex.c ****     hrtc->State = HAL_RTC_STATE_ERROR;
1546:./STM32F4xx_HAL_Driver/Src/stm32f4xx_hal_rtc_ex.c **** 
1547:./STM32F4xx_HAL_Driver/Src/stm32f4xx_hal_rtc_ex.c ****     /* Process Unlocked */
1548:./STM32F4xx_HAL_Driver/Src/stm32f4xx_hal_rtc_ex.c ****     __HAL_UNLOCK(hrtc);
1549:./STM32F4xx_HAL_Driver/Src/stm32f4xx_hal_rtc_ex.c **** 
1550:./STM32F4xx_HAL_Driver/Src/stm32f4xx_hal_rtc_ex.c ****     return HAL_ERROR;
1551:./STM32F4xx_HAL_Driver/Src/stm32f4xx_hal_rtc_ex.c ****   }
1552:./STM32F4xx_HAL_Driver/Src/stm32f4xx_hal_rtc_ex.c **** 
1553:./STM32F4xx_HAL_Driver/Src/stm32f4xx_hal_rtc_ex.c ****   /* Enable the write protection for RTC registers */
1554:./STM32F4xx_HAL_Driver/Src/stm32f4xx_hal_rtc_ex.c ****   __HAL_RTC_WRITEPROTECTION_ENABLE(hrtc);
1555:./STM32F4xx_HAL_Driver/Src/stm32f4xx_hal_rtc_ex.c **** 
ARM GAS  /tmp/cc9ZOIPt.s 			page 76


1556:./STM32F4xx_HAL_Driver/Src/stm32f4xx_hal_rtc_ex.c ****   /* Change RTC state */
1557:./STM32F4xx_HAL_Driver/Src/stm32f4xx_hal_rtc_ex.c ****   hrtc->State = HAL_RTC_STATE_READY;
1558:./STM32F4xx_HAL_Driver/Src/stm32f4xx_hal_rtc_ex.c **** 
1559:./STM32F4xx_HAL_Driver/Src/stm32f4xx_hal_rtc_ex.c ****   /* Process Unlocked */
1560:./STM32F4xx_HAL_Driver/Src/stm32f4xx_hal_rtc_ex.c ****   __HAL_UNLOCK(hrtc);
1561:./STM32F4xx_HAL_Driver/Src/stm32f4xx_hal_rtc_ex.c **** 
1562:./STM32F4xx_HAL_Driver/Src/stm32f4xx_hal_rtc_ex.c ****   return HAL_OK;
1563:./STM32F4xx_HAL_Driver/Src/stm32f4xx_hal_rtc_ex.c **** }
 2600              		.loc 1 1563 1 is_stmt 0 view .LVU898
 2601 004e BDE8F081 		pop	{r4, r5, r6, r7, r8, pc}
 2602              	.LVL182:
 2603              	.L165:
1517:./STM32F4xx_HAL_Driver/Src/stm32f4xx_hal_rtc_ex.c ****   {
 2604              		.loc 1 1517 3 is_stmt 1 view .LVU899
1517:./STM32F4xx_HAL_Driver/Src/stm32f4xx_hal_rtc_ex.c ****   {
 2605              		.loc 1 1517 22 is_stmt 0 view .LVU900
 2606 0052 9A68     		ldr	r2, [r3, #8]
1517:./STM32F4xx_HAL_Driver/Src/stm32f4xx_hal_rtc_ex.c ****   {
 2607              		.loc 1 1517 6 view .LVU901
 2608 0054 12F0100F 		tst	r2, #16
 2609 0058 1DD1     		bne	.L158
1520:./STM32F4xx_HAL_Driver/Src/stm32f4xx_hal_rtc_ex.c **** 
 2610              		.loc 1 1520 5 is_stmt 1 view .LVU902
1520:./STM32F4xx_HAL_Driver/Src/stm32f4xx_hal_rtc_ex.c **** 
 2611              		.loc 1 1520 63 is_stmt 0 view .LVU903
 2612 005a 47EA0807 		orr	r7, r7, r8
 2613              	.LVL183:
1520:./STM32F4xx_HAL_Driver/Src/stm32f4xx_hal_rtc_ex.c **** 
 2614              		.loc 1 1520 28 view .LVU904
 2615 005e DF62     		str	r7, [r3, #44]
1523:./STM32F4xx_HAL_Driver/Src/stm32f4xx_hal_rtc_ex.c ****     {
 2616              		.loc 1 1523 5 is_stmt 1 view .LVU905
1523:./STM32F4xx_HAL_Driver/Src/stm32f4xx_hal_rtc_ex.c ****     {
 2617              		.loc 1 1523 14 is_stmt 0 view .LVU906
 2618 0060 2368     		ldr	r3, [r4]
1523:./STM32F4xx_HAL_Driver/Src/stm32f4xx_hal_rtc_ex.c ****     {
 2619              		.loc 1 1523 24 view .LVU907
 2620 0062 9B68     		ldr	r3, [r3, #8]
1523:./STM32F4xx_HAL_Driver/Src/stm32f4xx_hal_rtc_ex.c ****     {
 2621              		.loc 1 1523 8 view .LVU908
 2622 0064 13F0200F 		tst	r3, #32
 2623 0068 07D0     		beq	.L166
 2624              	.L159:
1554:./STM32F4xx_HAL_Driver/Src/stm32f4xx_hal_rtc_ex.c **** 
 2625              		.loc 1 1554 3 is_stmt 1 view .LVU909
1554:./STM32F4xx_HAL_Driver/Src/stm32f4xx_hal_rtc_ex.c **** 
 2626              		.loc 1 1554 3 view .LVU910
 2627 006a 2368     		ldr	r3, [r4]
 2628 006c FF22     		movs	r2, #255
 2629 006e 5A62     		str	r2, [r3, #36]
1554:./STM32F4xx_HAL_Driver/Src/stm32f4xx_hal_rtc_ex.c **** 
 2630              		.loc 1 1554 3 view .LVU911
1557:./STM32F4xx_HAL_Driver/Src/stm32f4xx_hal_rtc_ex.c **** 
 2631              		.loc 1 1557 3 view .LVU912
1557:./STM32F4xx_HAL_Driver/Src/stm32f4xx_hal_rtc_ex.c **** 
 2632              		.loc 1 1557 15 is_stmt 0 view .LVU913
 2633 0070 0123     		movs	r3, #1
ARM GAS  /tmp/cc9ZOIPt.s 			page 77


 2634 0072 6377     		strb	r3, [r4, #29]
1560:./STM32F4xx_HAL_Driver/Src/stm32f4xx_hal_rtc_ex.c **** 
 2635              		.loc 1 1560 3 is_stmt 1 view .LVU914
1560:./STM32F4xx_HAL_Driver/Src/stm32f4xx_hal_rtc_ex.c **** 
 2636              		.loc 1 1560 3 view .LVU915
 2637 0074 0020     		movs	r0, #0
 2638 0076 2077     		strb	r0, [r4, #28]
1560:./STM32F4xx_HAL_Driver/Src/stm32f4xx_hal_rtc_ex.c **** 
 2639              		.loc 1 1560 3 view .LVU916
1562:./STM32F4xx_HAL_Driver/Src/stm32f4xx_hal_rtc_ex.c **** }
 2640              		.loc 1 1562 3 view .LVU917
1562:./STM32F4xx_HAL_Driver/Src/stm32f4xx_hal_rtc_ex.c **** }
 2641              		.loc 1 1562 10 is_stmt 0 view .LVU918
 2642 0078 E9E7     		b	.L155
 2643              	.L166:
1525:./STM32F4xx_HAL_Driver/Src/stm32f4xx_hal_rtc_ex.c ****       {
 2644              		.loc 1 1525 7 is_stmt 1 view .LVU919
1525:./STM32F4xx_HAL_Driver/Src/stm32f4xx_hal_rtc_ex.c ****       {
 2645              		.loc 1 1525 11 is_stmt 0 view .LVU920
 2646 007a 2046     		mov	r0, r4
 2647 007c FFF7FEFF 		bl	HAL_RTC_WaitForSynchro
 2648              	.LVL184:
1525:./STM32F4xx_HAL_Driver/Src/stm32f4xx_hal_rtc_ex.c ****       {
 2649              		.loc 1 1525 10 view .LVU921
 2650 0080 0028     		cmp	r0, #0
 2651 0082 F2D0     		beq	.L159
1528:./STM32F4xx_HAL_Driver/Src/stm32f4xx_hal_rtc_ex.c **** 
 2652              		.loc 1 1528 9 is_stmt 1 view .LVU922
1528:./STM32F4xx_HAL_Driver/Src/stm32f4xx_hal_rtc_ex.c **** 
 2653              		.loc 1 1528 9 view .LVU923
 2654 0084 2368     		ldr	r3, [r4]
 2655 0086 FF22     		movs	r2, #255
 2656 0088 5A62     		str	r2, [r3, #36]
1528:./STM32F4xx_HAL_Driver/Src/stm32f4xx_hal_rtc_ex.c **** 
 2657              		.loc 1 1528 9 view .LVU924
1530:./STM32F4xx_HAL_Driver/Src/stm32f4xx_hal_rtc_ex.c **** 
 2658              		.loc 1 1530 9 view .LVU925
1530:./STM32F4xx_HAL_Driver/Src/stm32f4xx_hal_rtc_ex.c **** 
 2659              		.loc 1 1530 21 is_stmt 0 view .LVU926
 2660 008a 0423     		movs	r3, #4
 2661 008c 6377     		strb	r3, [r4, #29]
1533:./STM32F4xx_HAL_Driver/Src/stm32f4xx_hal_rtc_ex.c **** 
 2662              		.loc 1 1533 9 is_stmt 1 view .LVU927
1533:./STM32F4xx_HAL_Driver/Src/stm32f4xx_hal_rtc_ex.c **** 
 2663              		.loc 1 1533 9 view .LVU928
 2664 008e 0023     		movs	r3, #0
 2665 0090 2377     		strb	r3, [r4, #28]
1533:./STM32F4xx_HAL_Driver/Src/stm32f4xx_hal_rtc_ex.c **** 
 2666              		.loc 1 1533 9 view .LVU929
1535:./STM32F4xx_HAL_Driver/Src/stm32f4xx_hal_rtc_ex.c ****       }
 2667              		.loc 1 1535 9 view .LVU930
1535:./STM32F4xx_HAL_Driver/Src/stm32f4xx_hal_rtc_ex.c ****       }
 2668              		.loc 1 1535 16 is_stmt 0 view .LVU931
 2669 0092 0120     		movs	r0, #1
 2670 0094 DBE7     		b	.L155
 2671              	.LVL185:
 2672              	.L158:
ARM GAS  /tmp/cc9ZOIPt.s 			page 78


1542:./STM32F4xx_HAL_Driver/Src/stm32f4xx_hal_rtc_ex.c **** 
 2673              		.loc 1 1542 5 is_stmt 1 view .LVU932
1542:./STM32F4xx_HAL_Driver/Src/stm32f4xx_hal_rtc_ex.c **** 
 2674              		.loc 1 1542 5 view .LVU933
 2675 0096 FF22     		movs	r2, #255
 2676 0098 5A62     		str	r2, [r3, #36]
1542:./STM32F4xx_HAL_Driver/Src/stm32f4xx_hal_rtc_ex.c **** 
 2677              		.loc 1 1542 5 view .LVU934
1545:./STM32F4xx_HAL_Driver/Src/stm32f4xx_hal_rtc_ex.c **** 
 2678              		.loc 1 1545 5 view .LVU935
1545:./STM32F4xx_HAL_Driver/Src/stm32f4xx_hal_rtc_ex.c **** 
 2679              		.loc 1 1545 17 is_stmt 0 view .LVU936
 2680 009a 0423     		movs	r3, #4
 2681 009c 6377     		strb	r3, [r4, #29]
1548:./STM32F4xx_HAL_Driver/Src/stm32f4xx_hal_rtc_ex.c **** 
 2682              		.loc 1 1548 5 is_stmt 1 view .LVU937
1548:./STM32F4xx_HAL_Driver/Src/stm32f4xx_hal_rtc_ex.c **** 
 2683              		.loc 1 1548 5 view .LVU938
 2684 009e 0023     		movs	r3, #0
 2685 00a0 2377     		strb	r3, [r4, #28]
1548:./STM32F4xx_HAL_Driver/Src/stm32f4xx_hal_rtc_ex.c **** 
 2686              		.loc 1 1548 5 view .LVU939
1550:./STM32F4xx_HAL_Driver/Src/stm32f4xx_hal_rtc_ex.c ****   }
 2687              		.loc 1 1550 5 view .LVU940
1550:./STM32F4xx_HAL_Driver/Src/stm32f4xx_hal_rtc_ex.c ****   }
 2688              		.loc 1 1550 12 is_stmt 0 view .LVU941
 2689 00a2 0120     		movs	r0, #1
 2690 00a4 D3E7     		b	.L155
 2691              	.LVL186:
 2692              	.L160:
 2693              	.LCFI33:
 2694              		.cfi_def_cfa_offset 0
 2695              		.cfi_restore 4
 2696              		.cfi_restore 5
 2697              		.cfi_restore 6
 2698              		.cfi_restore 7
 2699              		.cfi_restore 8
 2700              		.cfi_restore 14
1489:./STM32F4xx_HAL_Driver/Src/stm32f4xx_hal_rtc_ex.c **** 
 2701              		.loc 1 1489 3 view .LVU942
 2702 00a6 0220     		movs	r0, #2
 2703              	.LVL187:
 2704              		.loc 1 1563 1 view .LVU943
 2705 00a8 7047     		bx	lr
 2706              		.cfi_endproc
 2707              	.LFE240:
 2709              		.section	.text.HAL_RTCEx_SetCalibrationOutPut,"ax",%progbits
 2710              		.align	1
 2711              		.global	HAL_RTCEx_SetCalibrationOutPut
 2712              		.syntax unified
 2713              		.thumb
 2714              		.thumb_func
 2716              	HAL_RTCEx_SetCalibrationOutPut:
 2717              	.LVL188:
 2718              	.LFB241:
1564:./STM32F4xx_HAL_Driver/Src/stm32f4xx_hal_rtc_ex.c **** 
1565:./STM32F4xx_HAL_Driver/Src/stm32f4xx_hal_rtc_ex.c **** /**
ARM GAS  /tmp/cc9ZOIPt.s 			page 79


1566:./STM32F4xx_HAL_Driver/Src/stm32f4xx_hal_rtc_ex.c ****   * @brief  Configures the Calibration Pinout (RTC_CALIB) Selection (1Hz or 512Hz).
1567:./STM32F4xx_HAL_Driver/Src/stm32f4xx_hal_rtc_ex.c ****   * @param  hrtc pointer to a RTC_HandleTypeDef structure that contains
1568:./STM32F4xx_HAL_Driver/Src/stm32f4xx_hal_rtc_ex.c ****   *                the configuration information for RTC.
1569:./STM32F4xx_HAL_Driver/Src/stm32f4xx_hal_rtc_ex.c ****   * @param  CalibOutput Select the Calibration output Selection.
1570:./STM32F4xx_HAL_Driver/Src/stm32f4xx_hal_rtc_ex.c ****   *          This parameter can be one of the following values:
1571:./STM32F4xx_HAL_Driver/Src/stm32f4xx_hal_rtc_ex.c ****   *             @arg RTC_CALIBOUTPUT_512HZ: A signal has a regular waveform at 512Hz.
1572:./STM32F4xx_HAL_Driver/Src/stm32f4xx_hal_rtc_ex.c ****   *             @arg RTC_CALIBOUTPUT_1HZ: A signal has a regular waveform at 1Hz.
1573:./STM32F4xx_HAL_Driver/Src/stm32f4xx_hal_rtc_ex.c ****   * @retval HAL status
1574:./STM32F4xx_HAL_Driver/Src/stm32f4xx_hal_rtc_ex.c ****   */
1575:./STM32F4xx_HAL_Driver/Src/stm32f4xx_hal_rtc_ex.c **** HAL_StatusTypeDef HAL_RTCEx_SetCalibrationOutPut(RTC_HandleTypeDef *hrtc, uint32_t CalibOutput)
1576:./STM32F4xx_HAL_Driver/Src/stm32f4xx_hal_rtc_ex.c **** {
 2719              		.loc 1 1576 1 is_stmt 1 view -0
 2720              		.cfi_startproc
 2721              		@ args = 0, pretend = 0, frame = 0
 2722              		@ frame_needed = 0, uses_anonymous_args = 0
 2723              		@ link register save eliminated.
1577:./STM32F4xx_HAL_Driver/Src/stm32f4xx_hal_rtc_ex.c ****   /* Check the parameters */
1578:./STM32F4xx_HAL_Driver/Src/stm32f4xx_hal_rtc_ex.c ****   assert_param(IS_RTC_CALIB_OUTPUT(CalibOutput));
 2724              		.loc 1 1578 3 view .LVU945
1579:./STM32F4xx_HAL_Driver/Src/stm32f4xx_hal_rtc_ex.c **** 
1580:./STM32F4xx_HAL_Driver/Src/stm32f4xx_hal_rtc_ex.c ****   /* Process Locked */
1581:./STM32F4xx_HAL_Driver/Src/stm32f4xx_hal_rtc_ex.c ****   __HAL_LOCK(hrtc);
 2725              		.loc 1 1581 3 view .LVU946
 2726              		.loc 1 1581 3 view .LVU947
 2727 0000 027F     		ldrb	r2, [r0, #28]	@ zero_extendqisi2
 2728 0002 012A     		cmp	r2, #1
 2729 0004 22D0     		beq	.L169
1576:./STM32F4xx_HAL_Driver/Src/stm32f4xx_hal_rtc_ex.c ****   /* Check the parameters */
 2730              		.loc 1 1576 1 is_stmt 0 discriminator 2 view .LVU948
 2731 0006 10B4     		push	{r4}
 2732              	.LCFI34:
 2733              		.cfi_def_cfa_offset 4
 2734              		.cfi_offset 4, -4
 2735 0008 0346     		mov	r3, r0
 2736              		.loc 1 1581 3 is_stmt 1 discriminator 2 view .LVU949
 2737 000a 0120     		movs	r0, #1
 2738              	.LVL189:
 2739              		.loc 1 1581 3 is_stmt 0 discriminator 2 view .LVU950
 2740 000c 1877     		strb	r0, [r3, #28]
 2741              		.loc 1 1581 3 is_stmt 1 discriminator 2 view .LVU951
1582:./STM32F4xx_HAL_Driver/Src/stm32f4xx_hal_rtc_ex.c **** 
1583:./STM32F4xx_HAL_Driver/Src/stm32f4xx_hal_rtc_ex.c ****   hrtc->State = HAL_RTC_STATE_BUSY;
 2742              		.loc 1 1583 3 discriminator 2 view .LVU952
 2743              		.loc 1 1583 15 is_stmt 0 discriminator 2 view .LVU953
 2744 000e 0222     		movs	r2, #2
 2745 0010 5A77     		strb	r2, [r3, #29]
1584:./STM32F4xx_HAL_Driver/Src/stm32f4xx_hal_rtc_ex.c **** 
1585:./STM32F4xx_HAL_Driver/Src/stm32f4xx_hal_rtc_ex.c ****   /* Disable the write protection for RTC registers */
1586:./STM32F4xx_HAL_Driver/Src/stm32f4xx_hal_rtc_ex.c ****   __HAL_RTC_WRITEPROTECTION_DISABLE(hrtc);
 2746              		.loc 1 1586 3 is_stmt 1 discriminator 2 view .LVU954
 2747              		.loc 1 1586 3 discriminator 2 view .LVU955
 2748 0012 1A68     		ldr	r2, [r3]
 2749 0014 CA24     		movs	r4, #202
 2750 0016 5462     		str	r4, [r2, #36]
 2751              		.loc 1 1586 3 discriminator 2 view .LVU956
 2752 0018 1A68     		ldr	r2, [r3]
 2753 001a 5324     		movs	r4, #83
ARM GAS  /tmp/cc9ZOIPt.s 			page 80


 2754 001c 5462     		str	r4, [r2, #36]
 2755              		.loc 1 1586 3 discriminator 2 view .LVU957
1587:./STM32F4xx_HAL_Driver/Src/stm32f4xx_hal_rtc_ex.c **** 
1588:./STM32F4xx_HAL_Driver/Src/stm32f4xx_hal_rtc_ex.c ****   /* Clear flags before config */
1589:./STM32F4xx_HAL_Driver/Src/stm32f4xx_hal_rtc_ex.c ****   hrtc->Instance->CR &= (uint32_t)~RTC_CR_COSEL;
 2756              		.loc 1 1589 3 discriminator 2 view .LVU958
 2757              		.loc 1 1589 7 is_stmt 0 discriminator 2 view .LVU959
 2758 001e 1C68     		ldr	r4, [r3]
 2759              		.loc 1 1589 17 discriminator 2 view .LVU960
 2760 0020 A268     		ldr	r2, [r4, #8]
 2761              		.loc 1 1589 22 discriminator 2 view .LVU961
 2762 0022 22F40022 		bic	r2, r2, #524288
 2763 0026 A260     		str	r2, [r4, #8]
1590:./STM32F4xx_HAL_Driver/Src/stm32f4xx_hal_rtc_ex.c **** 
1591:./STM32F4xx_HAL_Driver/Src/stm32f4xx_hal_rtc_ex.c ****   /* Configure the RTC_CR register */
1592:./STM32F4xx_HAL_Driver/Src/stm32f4xx_hal_rtc_ex.c ****   hrtc->Instance->CR |= (uint32_t)CalibOutput;
 2764              		.loc 1 1592 3 is_stmt 1 discriminator 2 view .LVU962
 2765              		.loc 1 1592 7 is_stmt 0 discriminator 2 view .LVU963
 2766 0028 1C68     		ldr	r4, [r3]
 2767              		.loc 1 1592 17 discriminator 2 view .LVU964
 2768 002a A268     		ldr	r2, [r4, #8]
 2769              		.loc 1 1592 22 discriminator 2 view .LVU965
 2770 002c 0A43     		orrs	r2, r2, r1
 2771 002e A260     		str	r2, [r4, #8]
1593:./STM32F4xx_HAL_Driver/Src/stm32f4xx_hal_rtc_ex.c **** 
1594:./STM32F4xx_HAL_Driver/Src/stm32f4xx_hal_rtc_ex.c ****   __HAL_RTC_CALIBRATION_OUTPUT_ENABLE(hrtc);
 2772              		.loc 1 1594 3 is_stmt 1 discriminator 2 view .LVU966
 2773 0030 1968     		ldr	r1, [r3]
 2774              	.LVL190:
 2775              		.loc 1 1594 3 is_stmt 0 discriminator 2 view .LVU967
 2776 0032 8A68     		ldr	r2, [r1, #8]
 2777 0034 42F40002 		orr	r2, r2, #8388608
 2778 0038 8A60     		str	r2, [r1, #8]
1595:./STM32F4xx_HAL_Driver/Src/stm32f4xx_hal_rtc_ex.c **** 
1596:./STM32F4xx_HAL_Driver/Src/stm32f4xx_hal_rtc_ex.c ****   /* Enable the write protection for RTC registers */
1597:./STM32F4xx_HAL_Driver/Src/stm32f4xx_hal_rtc_ex.c ****   __HAL_RTC_WRITEPROTECTION_ENABLE(hrtc);
 2779              		.loc 1 1597 3 is_stmt 1 discriminator 2 view .LVU968
 2780              		.loc 1 1597 3 discriminator 2 view .LVU969
 2781 003a 1A68     		ldr	r2, [r3]
 2782 003c FF21     		movs	r1, #255
 2783 003e 5162     		str	r1, [r2, #36]
 2784              		.loc 1 1597 3 discriminator 2 view .LVU970
1598:./STM32F4xx_HAL_Driver/Src/stm32f4xx_hal_rtc_ex.c **** 
1599:./STM32F4xx_HAL_Driver/Src/stm32f4xx_hal_rtc_ex.c ****   /* Change RTC state */
1600:./STM32F4xx_HAL_Driver/Src/stm32f4xx_hal_rtc_ex.c ****   hrtc->State = HAL_RTC_STATE_READY;
 2785              		.loc 1 1600 3 discriminator 2 view .LVU971
 2786              		.loc 1 1600 15 is_stmt 0 discriminator 2 view .LVU972
 2787 0040 5877     		strb	r0, [r3, #29]
1601:./STM32F4xx_HAL_Driver/Src/stm32f4xx_hal_rtc_ex.c **** 
1602:./STM32F4xx_HAL_Driver/Src/stm32f4xx_hal_rtc_ex.c ****   /* Process Unlocked */
1603:./STM32F4xx_HAL_Driver/Src/stm32f4xx_hal_rtc_ex.c ****   __HAL_UNLOCK(hrtc);
 2788              		.loc 1 1603 3 is_stmt 1 discriminator 2 view .LVU973
 2789              		.loc 1 1603 3 discriminator 2 view .LVU974
 2790 0042 0020     		movs	r0, #0
 2791 0044 1877     		strb	r0, [r3, #28]
 2792              		.loc 1 1603 3 discriminator 2 view .LVU975
1604:./STM32F4xx_HAL_Driver/Src/stm32f4xx_hal_rtc_ex.c **** 
ARM GAS  /tmp/cc9ZOIPt.s 			page 81


1605:./STM32F4xx_HAL_Driver/Src/stm32f4xx_hal_rtc_ex.c ****   return HAL_OK;
 2793              		.loc 1 1605 3 discriminator 2 view .LVU976
1606:./STM32F4xx_HAL_Driver/Src/stm32f4xx_hal_rtc_ex.c **** }
 2794              		.loc 1 1606 1 is_stmt 0 discriminator 2 view .LVU977
 2795 0046 5DF8044B 		ldr	r4, [sp], #4
 2796              	.LCFI35:
 2797              		.cfi_restore 4
 2798              		.cfi_def_cfa_offset 0
 2799 004a 7047     		bx	lr
 2800              	.LVL191:
 2801              	.L169:
1581:./STM32F4xx_HAL_Driver/Src/stm32f4xx_hal_rtc_ex.c **** 
 2802              		.loc 1 1581 3 view .LVU978
 2803 004c 0220     		movs	r0, #2
 2804              	.LVL192:
 2805              		.loc 1 1606 1 view .LVU979
 2806 004e 7047     		bx	lr
 2807              		.cfi_endproc
 2808              	.LFE241:
 2810              		.section	.text.HAL_RTCEx_DeactivateCalibrationOutPut,"ax",%progbits
 2811              		.align	1
 2812              		.global	HAL_RTCEx_DeactivateCalibrationOutPut
 2813              		.syntax unified
 2814              		.thumb
 2815              		.thumb_func
 2817              	HAL_RTCEx_DeactivateCalibrationOutPut:
 2818              	.LVL193:
 2819              	.LFB242:
1607:./STM32F4xx_HAL_Driver/Src/stm32f4xx_hal_rtc_ex.c **** 
1608:./STM32F4xx_HAL_Driver/Src/stm32f4xx_hal_rtc_ex.c **** /**
1609:./STM32F4xx_HAL_Driver/Src/stm32f4xx_hal_rtc_ex.c ****   * @brief  Deactivates the Calibration Pinout (RTC_CALIB) Selection (1Hz or 512Hz).
1610:./STM32F4xx_HAL_Driver/Src/stm32f4xx_hal_rtc_ex.c ****   * @param  hrtc pointer to a RTC_HandleTypeDef structure that contains
1611:./STM32F4xx_HAL_Driver/Src/stm32f4xx_hal_rtc_ex.c ****   *                the configuration information for RTC.
1612:./STM32F4xx_HAL_Driver/Src/stm32f4xx_hal_rtc_ex.c ****   * @retval HAL status
1613:./STM32F4xx_HAL_Driver/Src/stm32f4xx_hal_rtc_ex.c ****   */
1614:./STM32F4xx_HAL_Driver/Src/stm32f4xx_hal_rtc_ex.c **** HAL_StatusTypeDef HAL_RTCEx_DeactivateCalibrationOutPut(RTC_HandleTypeDef *hrtc)
1615:./STM32F4xx_HAL_Driver/Src/stm32f4xx_hal_rtc_ex.c **** {
 2820              		.loc 1 1615 1 is_stmt 1 view -0
 2821              		.cfi_startproc
 2822              		@ args = 0, pretend = 0, frame = 0
 2823              		@ frame_needed = 0, uses_anonymous_args = 0
 2824              		@ link register save eliminated.
1616:./STM32F4xx_HAL_Driver/Src/stm32f4xx_hal_rtc_ex.c ****   /* Process Locked */
1617:./STM32F4xx_HAL_Driver/Src/stm32f4xx_hal_rtc_ex.c ****   __HAL_LOCK(hrtc);
 2825              		.loc 1 1617 3 view .LVU981
 2826              		.loc 1 1617 3 view .LVU982
 2827 0000 037F     		ldrb	r3, [r0, #28]	@ zero_extendqisi2
 2828 0002 012B     		cmp	r3, #1
 2829 0004 16D0     		beq	.L176
 2830              		.loc 1 1617 3 discriminator 2 view .LVU983
 2831 0006 0122     		movs	r2, #1
 2832 0008 0277     		strb	r2, [r0, #28]
 2833              		.loc 1 1617 3 discriminator 2 view .LVU984
1618:./STM32F4xx_HAL_Driver/Src/stm32f4xx_hal_rtc_ex.c **** 
1619:./STM32F4xx_HAL_Driver/Src/stm32f4xx_hal_rtc_ex.c ****   hrtc->State = HAL_RTC_STATE_BUSY;
 2834              		.loc 1 1619 3 discriminator 2 view .LVU985
 2835              		.loc 1 1619 15 is_stmt 0 discriminator 2 view .LVU986
ARM GAS  /tmp/cc9ZOIPt.s 			page 82


 2836 000a 0223     		movs	r3, #2
 2837 000c 4377     		strb	r3, [r0, #29]
1620:./STM32F4xx_HAL_Driver/Src/stm32f4xx_hal_rtc_ex.c **** 
1621:./STM32F4xx_HAL_Driver/Src/stm32f4xx_hal_rtc_ex.c ****   /* Disable the write protection for RTC registers */
1622:./STM32F4xx_HAL_Driver/Src/stm32f4xx_hal_rtc_ex.c ****   __HAL_RTC_WRITEPROTECTION_DISABLE(hrtc);
 2838              		.loc 1 1622 3 is_stmt 1 discriminator 2 view .LVU987
 2839              		.loc 1 1622 3 discriminator 2 view .LVU988
 2840 000e 0368     		ldr	r3, [r0]
 2841 0010 CA21     		movs	r1, #202
 2842 0012 5962     		str	r1, [r3, #36]
 2843              		.loc 1 1622 3 discriminator 2 view .LVU989
 2844 0014 0368     		ldr	r3, [r0]
 2845 0016 5321     		movs	r1, #83
 2846 0018 5962     		str	r1, [r3, #36]
 2847              		.loc 1 1622 3 discriminator 2 view .LVU990
1623:./STM32F4xx_HAL_Driver/Src/stm32f4xx_hal_rtc_ex.c **** 
1624:./STM32F4xx_HAL_Driver/Src/stm32f4xx_hal_rtc_ex.c ****   __HAL_RTC_CALIBRATION_OUTPUT_DISABLE(hrtc);
 2848              		.loc 1 1624 3 discriminator 2 view .LVU991
 2849 001a 0168     		ldr	r1, [r0]
 2850 001c 8B68     		ldr	r3, [r1, #8]
 2851 001e 23F40003 		bic	r3, r3, #8388608
 2852 0022 8B60     		str	r3, [r1, #8]
1625:./STM32F4xx_HAL_Driver/Src/stm32f4xx_hal_rtc_ex.c **** 
1626:./STM32F4xx_HAL_Driver/Src/stm32f4xx_hal_rtc_ex.c ****   /* Enable the write protection for RTC registers */
1627:./STM32F4xx_HAL_Driver/Src/stm32f4xx_hal_rtc_ex.c ****   __HAL_RTC_WRITEPROTECTION_ENABLE(hrtc);
 2853              		.loc 1 1627 3 discriminator 2 view .LVU992
 2854              		.loc 1 1627 3 discriminator 2 view .LVU993
 2855 0024 0368     		ldr	r3, [r0]
 2856 0026 FF21     		movs	r1, #255
 2857 0028 5962     		str	r1, [r3, #36]
 2858              		.loc 1 1627 3 discriminator 2 view .LVU994
1628:./STM32F4xx_HAL_Driver/Src/stm32f4xx_hal_rtc_ex.c **** 
1629:./STM32F4xx_HAL_Driver/Src/stm32f4xx_hal_rtc_ex.c ****   /* Change RTC state */
1630:./STM32F4xx_HAL_Driver/Src/stm32f4xx_hal_rtc_ex.c ****   hrtc->State = HAL_RTC_STATE_READY;
 2859              		.loc 1 1630 3 discriminator 2 view .LVU995
 2860              		.loc 1 1630 15 is_stmt 0 discriminator 2 view .LVU996
 2861 002a 4277     		strb	r2, [r0, #29]
1631:./STM32F4xx_HAL_Driver/Src/stm32f4xx_hal_rtc_ex.c **** 
1632:./STM32F4xx_HAL_Driver/Src/stm32f4xx_hal_rtc_ex.c ****   /* Process Unlocked */
1633:./STM32F4xx_HAL_Driver/Src/stm32f4xx_hal_rtc_ex.c ****   __HAL_UNLOCK(hrtc);
 2862              		.loc 1 1633 3 is_stmt 1 discriminator 2 view .LVU997
 2863              		.loc 1 1633 3 discriminator 2 view .LVU998
 2864 002c 0023     		movs	r3, #0
 2865 002e 0377     		strb	r3, [r0, #28]
 2866              		.loc 1 1633 3 discriminator 2 view .LVU999
1634:./STM32F4xx_HAL_Driver/Src/stm32f4xx_hal_rtc_ex.c **** 
1635:./STM32F4xx_HAL_Driver/Src/stm32f4xx_hal_rtc_ex.c ****   return HAL_OK;
 2867              		.loc 1 1635 3 discriminator 2 view .LVU1000
 2868              		.loc 1 1635 10 is_stmt 0 discriminator 2 view .LVU1001
 2869 0030 1846     		mov	r0, r3
 2870              	.LVL194:
 2871              		.loc 1 1635 10 discriminator 2 view .LVU1002
 2872 0032 7047     		bx	lr
 2873              	.LVL195:
 2874              	.L176:
1617:./STM32F4xx_HAL_Driver/Src/stm32f4xx_hal_rtc_ex.c **** 
 2875              		.loc 1 1617 3 view .LVU1003
ARM GAS  /tmp/cc9ZOIPt.s 			page 83


 2876 0034 0220     		movs	r0, #2
 2877              	.LVL196:
1636:./STM32F4xx_HAL_Driver/Src/stm32f4xx_hal_rtc_ex.c **** }
 2878              		.loc 1 1636 1 view .LVU1004
 2879 0036 7047     		bx	lr
 2880              		.cfi_endproc
 2881              	.LFE242:
 2883              		.section	.text.HAL_RTCEx_SetRefClock,"ax",%progbits
 2884              		.align	1
 2885              		.global	HAL_RTCEx_SetRefClock
 2886              		.syntax unified
 2887              		.thumb
 2888              		.thumb_func
 2890              	HAL_RTCEx_SetRefClock:
 2891              	.LVL197:
 2892              	.LFB243:
1637:./STM32F4xx_HAL_Driver/Src/stm32f4xx_hal_rtc_ex.c **** 
1638:./STM32F4xx_HAL_Driver/Src/stm32f4xx_hal_rtc_ex.c **** /**
1639:./STM32F4xx_HAL_Driver/Src/stm32f4xx_hal_rtc_ex.c ****   * @brief  Enables the RTC reference clock detection.
1640:./STM32F4xx_HAL_Driver/Src/stm32f4xx_hal_rtc_ex.c ****   * @param  hrtc pointer to a RTC_HandleTypeDef structure that contains
1641:./STM32F4xx_HAL_Driver/Src/stm32f4xx_hal_rtc_ex.c ****   *                the configuration information for RTC.
1642:./STM32F4xx_HAL_Driver/Src/stm32f4xx_hal_rtc_ex.c ****   * @retval HAL status
1643:./STM32F4xx_HAL_Driver/Src/stm32f4xx_hal_rtc_ex.c ****   */
1644:./STM32F4xx_HAL_Driver/Src/stm32f4xx_hal_rtc_ex.c **** HAL_StatusTypeDef HAL_RTCEx_SetRefClock(RTC_HandleTypeDef *hrtc)
1645:./STM32F4xx_HAL_Driver/Src/stm32f4xx_hal_rtc_ex.c **** {
 2893              		.loc 1 1645 1 is_stmt 1 view -0
 2894              		.cfi_startproc
 2895              		@ args = 0, pretend = 0, frame = 0
 2896              		@ frame_needed = 0, uses_anonymous_args = 0
1646:./STM32F4xx_HAL_Driver/Src/stm32f4xx_hal_rtc_ex.c ****   HAL_StatusTypeDef status;
 2897              		.loc 1 1646 3 view .LVU1006
1647:./STM32F4xx_HAL_Driver/Src/stm32f4xx_hal_rtc_ex.c **** 
1648:./STM32F4xx_HAL_Driver/Src/stm32f4xx_hal_rtc_ex.c ****   /* Process Locked */
1649:./STM32F4xx_HAL_Driver/Src/stm32f4xx_hal_rtc_ex.c ****   __HAL_LOCK(hrtc);
 2898              		.loc 1 1649 3 view .LVU1007
 2899              		.loc 1 1649 3 view .LVU1008
 2900 0000 037F     		ldrb	r3, [r0, #28]	@ zero_extendqisi2
 2901 0002 012B     		cmp	r3, #1
 2902 0004 21D0     		beq	.L180
1645:./STM32F4xx_HAL_Driver/Src/stm32f4xx_hal_rtc_ex.c ****   HAL_StatusTypeDef status;
 2903              		.loc 1 1645 1 is_stmt 0 discriminator 2 view .LVU1009
 2904 0006 10B5     		push	{r4, lr}
 2905              	.LCFI36:
 2906              		.cfi_def_cfa_offset 8
 2907              		.cfi_offset 4, -8
 2908              		.cfi_offset 14, -4
 2909 0008 0446     		mov	r4, r0
 2910              		.loc 1 1649 3 is_stmt 1 discriminator 2 view .LVU1010
 2911 000a 0123     		movs	r3, #1
 2912 000c 0377     		strb	r3, [r0, #28]
 2913              		.loc 1 1649 3 discriminator 2 view .LVU1011
1650:./STM32F4xx_HAL_Driver/Src/stm32f4xx_hal_rtc_ex.c **** 
1651:./STM32F4xx_HAL_Driver/Src/stm32f4xx_hal_rtc_ex.c ****   hrtc->State = HAL_RTC_STATE_BUSY;
 2914              		.loc 1 1651 3 discriminator 2 view .LVU1012
 2915              		.loc 1 1651 15 is_stmt 0 discriminator 2 view .LVU1013
 2916 000e 0223     		movs	r3, #2
 2917 0010 4377     		strb	r3, [r0, #29]
ARM GAS  /tmp/cc9ZOIPt.s 			page 84


1652:./STM32F4xx_HAL_Driver/Src/stm32f4xx_hal_rtc_ex.c **** 
1653:./STM32F4xx_HAL_Driver/Src/stm32f4xx_hal_rtc_ex.c ****   /* Disable the write protection for RTC registers */
1654:./STM32F4xx_HAL_Driver/Src/stm32f4xx_hal_rtc_ex.c ****   __HAL_RTC_WRITEPROTECTION_DISABLE(hrtc);
 2918              		.loc 1 1654 3 is_stmt 1 discriminator 2 view .LVU1014
 2919              		.loc 1 1654 3 discriminator 2 view .LVU1015
 2920 0012 0368     		ldr	r3, [r0]
 2921 0014 CA22     		movs	r2, #202
 2922 0016 5A62     		str	r2, [r3, #36]
 2923              		.loc 1 1654 3 discriminator 2 view .LVU1016
 2924 0018 0368     		ldr	r3, [r0]
 2925 001a 5322     		movs	r2, #83
 2926 001c 5A62     		str	r2, [r3, #36]
 2927              		.loc 1 1654 3 discriminator 2 view .LVU1017
1655:./STM32F4xx_HAL_Driver/Src/stm32f4xx_hal_rtc_ex.c **** 
1656:./STM32F4xx_HAL_Driver/Src/stm32f4xx_hal_rtc_ex.c ****   /* Enter Initialization mode */
1657:./STM32F4xx_HAL_Driver/Src/stm32f4xx_hal_rtc_ex.c ****   status = RTC_EnterInitMode(hrtc);
 2928              		.loc 1 1657 3 discriminator 2 view .LVU1018
 2929              		.loc 1 1657 12 is_stmt 0 discriminator 2 view .LVU1019
 2930 001e FFF7FEFF 		bl	RTC_EnterInitMode
 2931              	.LVL198:
1658:./STM32F4xx_HAL_Driver/Src/stm32f4xx_hal_rtc_ex.c **** 
1659:./STM32F4xx_HAL_Driver/Src/stm32f4xx_hal_rtc_ex.c ****   if (status == HAL_OK)
 2932              		.loc 1 1659 3 is_stmt 1 discriminator 2 view .LVU1020
 2933              		.loc 1 1659 6 is_stmt 0 discriminator 2 view .LVU1021
 2934 0022 28B1     		cbz	r0, .L185
 2935              	.L179:
 2936              	.LVL199:
1660:./STM32F4xx_HAL_Driver/Src/stm32f4xx_hal_rtc_ex.c ****   {
1661:./STM32F4xx_HAL_Driver/Src/stm32f4xx_hal_rtc_ex.c ****     /* Enable the reference clock detection */
1662:./STM32F4xx_HAL_Driver/Src/stm32f4xx_hal_rtc_ex.c ****     __HAL_RTC_CLOCKREF_DETECTION_ENABLE(hrtc);
1663:./STM32F4xx_HAL_Driver/Src/stm32f4xx_hal_rtc_ex.c **** 
1664:./STM32F4xx_HAL_Driver/Src/stm32f4xx_hal_rtc_ex.c ****     /* Exit Initialization mode */
1665:./STM32F4xx_HAL_Driver/Src/stm32f4xx_hal_rtc_ex.c ****     status = RTC_ExitInitMode(hrtc);
1666:./STM32F4xx_HAL_Driver/Src/stm32f4xx_hal_rtc_ex.c ****   }
1667:./STM32F4xx_HAL_Driver/Src/stm32f4xx_hal_rtc_ex.c **** 
1668:./STM32F4xx_HAL_Driver/Src/stm32f4xx_hal_rtc_ex.c ****   if (status == HAL_OK)
1669:./STM32F4xx_HAL_Driver/Src/stm32f4xx_hal_rtc_ex.c ****   {
1670:./STM32F4xx_HAL_Driver/Src/stm32f4xx_hal_rtc_ex.c ****     hrtc->State = HAL_RTC_STATE_READY;
1671:./STM32F4xx_HAL_Driver/Src/stm32f4xx_hal_rtc_ex.c ****   }
1672:./STM32F4xx_HAL_Driver/Src/stm32f4xx_hal_rtc_ex.c **** 
1673:./STM32F4xx_HAL_Driver/Src/stm32f4xx_hal_rtc_ex.c ****   /* Enable the write protection for RTC registers */
1674:./STM32F4xx_HAL_Driver/Src/stm32f4xx_hal_rtc_ex.c ****   __HAL_RTC_WRITEPROTECTION_ENABLE(hrtc);
 2937              		.loc 1 1674 3 is_stmt 1 view .LVU1022
 2938              		.loc 1 1674 3 view .LVU1023
 2939 0024 2368     		ldr	r3, [r4]
 2940 0026 FF22     		movs	r2, #255
 2941 0028 5A62     		str	r2, [r3, #36]
 2942              		.loc 1 1674 3 view .LVU1024
1675:./STM32F4xx_HAL_Driver/Src/stm32f4xx_hal_rtc_ex.c **** 
1676:./STM32F4xx_HAL_Driver/Src/stm32f4xx_hal_rtc_ex.c ****   /* Process Unlocked */
1677:./STM32F4xx_HAL_Driver/Src/stm32f4xx_hal_rtc_ex.c ****   __HAL_UNLOCK(hrtc);
 2943              		.loc 1 1677 3 view .LVU1025
 2944              		.loc 1 1677 3 view .LVU1026
 2945 002a 0023     		movs	r3, #0
 2946 002c 2377     		strb	r3, [r4, #28]
 2947              		.loc 1 1677 3 view .LVU1027
1678:./STM32F4xx_HAL_Driver/Src/stm32f4xx_hal_rtc_ex.c **** 
ARM GAS  /tmp/cc9ZOIPt.s 			page 85


1679:./STM32F4xx_HAL_Driver/Src/stm32f4xx_hal_rtc_ex.c ****   return status;
 2948              		.loc 1 1679 3 view .LVU1028
1680:./STM32F4xx_HAL_Driver/Src/stm32f4xx_hal_rtc_ex.c **** }
 2949              		.loc 1 1680 1 is_stmt 0 view .LVU1029
 2950 002e 10BD     		pop	{r4, pc}
 2951              	.LVL200:
 2952              	.L185:
1662:./STM32F4xx_HAL_Driver/Src/stm32f4xx_hal_rtc_ex.c **** 
 2953              		.loc 1 1662 5 is_stmt 1 view .LVU1030
 2954 0030 2268     		ldr	r2, [r4]
 2955 0032 9368     		ldr	r3, [r2, #8]
 2956 0034 43F01003 		orr	r3, r3, #16
 2957 0038 9360     		str	r3, [r2, #8]
1665:./STM32F4xx_HAL_Driver/Src/stm32f4xx_hal_rtc_ex.c ****   }
 2958              		.loc 1 1665 5 view .LVU1031
1665:./STM32F4xx_HAL_Driver/Src/stm32f4xx_hal_rtc_ex.c ****   }
 2959              		.loc 1 1665 14 is_stmt 0 view .LVU1032
 2960 003a 2046     		mov	r0, r4
 2961              	.LVL201:
1665:./STM32F4xx_HAL_Driver/Src/stm32f4xx_hal_rtc_ex.c ****   }
 2962              		.loc 1 1665 14 view .LVU1033
 2963 003c FFF7FEFF 		bl	RTC_ExitInitMode
 2964              	.LVL202:
1668:./STM32F4xx_HAL_Driver/Src/stm32f4xx_hal_rtc_ex.c ****   {
 2965              		.loc 1 1668 3 is_stmt 1 view .LVU1034
1668:./STM32F4xx_HAL_Driver/Src/stm32f4xx_hal_rtc_ex.c ****   {
 2966              		.loc 1 1668 6 is_stmt 0 view .LVU1035
 2967 0040 0028     		cmp	r0, #0
 2968 0042 EFD1     		bne	.L179
1670:./STM32F4xx_HAL_Driver/Src/stm32f4xx_hal_rtc_ex.c ****   }
 2969              		.loc 1 1670 5 is_stmt 1 view .LVU1036
1670:./STM32F4xx_HAL_Driver/Src/stm32f4xx_hal_rtc_ex.c ****   }
 2970              		.loc 1 1670 17 is_stmt 0 view .LVU1037
 2971 0044 0123     		movs	r3, #1
 2972 0046 6377     		strb	r3, [r4, #29]
 2973 0048 ECE7     		b	.L179
 2974              	.LVL203:
 2975              	.L180:
 2976              	.LCFI37:
 2977              		.cfi_def_cfa_offset 0
 2978              		.cfi_restore 4
 2979              		.cfi_restore 14
1649:./STM32F4xx_HAL_Driver/Src/stm32f4xx_hal_rtc_ex.c **** 
 2980              		.loc 1 1649 3 view .LVU1038
 2981 004a 0220     		movs	r0, #2
 2982              	.LVL204:
 2983              		.loc 1 1680 1 view .LVU1039
 2984 004c 7047     		bx	lr
 2985              		.cfi_endproc
 2986              	.LFE243:
 2988              		.section	.text.HAL_RTCEx_DeactivateRefClock,"ax",%progbits
 2989              		.align	1
 2990              		.global	HAL_RTCEx_DeactivateRefClock
 2991              		.syntax unified
 2992              		.thumb
 2993              		.thumb_func
 2995              	HAL_RTCEx_DeactivateRefClock:
ARM GAS  /tmp/cc9ZOIPt.s 			page 86


 2996              	.LVL205:
 2997              	.LFB244:
1681:./STM32F4xx_HAL_Driver/Src/stm32f4xx_hal_rtc_ex.c **** 
1682:./STM32F4xx_HAL_Driver/Src/stm32f4xx_hal_rtc_ex.c **** /**
1683:./STM32F4xx_HAL_Driver/Src/stm32f4xx_hal_rtc_ex.c ****   * @brief  Disable the RTC reference clock detection.
1684:./STM32F4xx_HAL_Driver/Src/stm32f4xx_hal_rtc_ex.c ****   * @param  hrtc pointer to a RTC_HandleTypeDef structure that contains
1685:./STM32F4xx_HAL_Driver/Src/stm32f4xx_hal_rtc_ex.c ****   *                the configuration information for RTC.
1686:./STM32F4xx_HAL_Driver/Src/stm32f4xx_hal_rtc_ex.c ****   * @retval HAL status
1687:./STM32F4xx_HAL_Driver/Src/stm32f4xx_hal_rtc_ex.c ****   */
1688:./STM32F4xx_HAL_Driver/Src/stm32f4xx_hal_rtc_ex.c **** HAL_StatusTypeDef HAL_RTCEx_DeactivateRefClock(RTC_HandleTypeDef *hrtc)
1689:./STM32F4xx_HAL_Driver/Src/stm32f4xx_hal_rtc_ex.c **** {
 2998              		.loc 1 1689 1 is_stmt 1 view -0
 2999              		.cfi_startproc
 3000              		@ args = 0, pretend = 0, frame = 0
 3001              		@ frame_needed = 0, uses_anonymous_args = 0
1690:./STM32F4xx_HAL_Driver/Src/stm32f4xx_hal_rtc_ex.c ****   HAL_StatusTypeDef status;
 3002              		.loc 1 1690 3 view .LVU1041
1691:./STM32F4xx_HAL_Driver/Src/stm32f4xx_hal_rtc_ex.c **** 
1692:./STM32F4xx_HAL_Driver/Src/stm32f4xx_hal_rtc_ex.c ****   /* Process Locked */
1693:./STM32F4xx_HAL_Driver/Src/stm32f4xx_hal_rtc_ex.c ****   __HAL_LOCK(hrtc);
 3003              		.loc 1 1693 3 view .LVU1042
 3004              		.loc 1 1693 3 view .LVU1043
 3005 0000 037F     		ldrb	r3, [r0, #28]	@ zero_extendqisi2
 3006 0002 012B     		cmp	r3, #1
 3007 0004 21D0     		beq	.L189
1689:./STM32F4xx_HAL_Driver/Src/stm32f4xx_hal_rtc_ex.c ****   HAL_StatusTypeDef status;
 3008              		.loc 1 1689 1 is_stmt 0 discriminator 2 view .LVU1044
 3009 0006 10B5     		push	{r4, lr}
 3010              	.LCFI38:
 3011              		.cfi_def_cfa_offset 8
 3012              		.cfi_offset 4, -8
 3013              		.cfi_offset 14, -4
 3014 0008 0446     		mov	r4, r0
 3015              		.loc 1 1693 3 is_stmt 1 discriminator 2 view .LVU1045
 3016 000a 0123     		movs	r3, #1
 3017 000c 0377     		strb	r3, [r0, #28]
 3018              		.loc 1 1693 3 discriminator 2 view .LVU1046
1694:./STM32F4xx_HAL_Driver/Src/stm32f4xx_hal_rtc_ex.c **** 
1695:./STM32F4xx_HAL_Driver/Src/stm32f4xx_hal_rtc_ex.c ****   hrtc->State = HAL_RTC_STATE_BUSY;
 3019              		.loc 1 1695 3 discriminator 2 view .LVU1047
 3020              		.loc 1 1695 15 is_stmt 0 discriminator 2 view .LVU1048
 3021 000e 0223     		movs	r3, #2
 3022 0010 4377     		strb	r3, [r0, #29]
1696:./STM32F4xx_HAL_Driver/Src/stm32f4xx_hal_rtc_ex.c **** 
1697:./STM32F4xx_HAL_Driver/Src/stm32f4xx_hal_rtc_ex.c ****   /* Disable the write protection for RTC registers */
1698:./STM32F4xx_HAL_Driver/Src/stm32f4xx_hal_rtc_ex.c ****   __HAL_RTC_WRITEPROTECTION_DISABLE(hrtc);
 3023              		.loc 1 1698 3 is_stmt 1 discriminator 2 view .LVU1049
 3024              		.loc 1 1698 3 discriminator 2 view .LVU1050
 3025 0012 0368     		ldr	r3, [r0]
 3026 0014 CA22     		movs	r2, #202
 3027 0016 5A62     		str	r2, [r3, #36]
 3028              		.loc 1 1698 3 discriminator 2 view .LVU1051
 3029 0018 0368     		ldr	r3, [r0]
 3030 001a 5322     		movs	r2, #83
 3031 001c 5A62     		str	r2, [r3, #36]
 3032              		.loc 1 1698 3 discriminator 2 view .LVU1052
1699:./STM32F4xx_HAL_Driver/Src/stm32f4xx_hal_rtc_ex.c **** 
ARM GAS  /tmp/cc9ZOIPt.s 			page 87


1700:./STM32F4xx_HAL_Driver/Src/stm32f4xx_hal_rtc_ex.c ****   /* Enter Initialization mode */
1701:./STM32F4xx_HAL_Driver/Src/stm32f4xx_hal_rtc_ex.c ****   status = RTC_EnterInitMode(hrtc);
 3033              		.loc 1 1701 3 discriminator 2 view .LVU1053
 3034              		.loc 1 1701 12 is_stmt 0 discriminator 2 view .LVU1054
 3035 001e FFF7FEFF 		bl	RTC_EnterInitMode
 3036              	.LVL206:
1702:./STM32F4xx_HAL_Driver/Src/stm32f4xx_hal_rtc_ex.c **** 
1703:./STM32F4xx_HAL_Driver/Src/stm32f4xx_hal_rtc_ex.c ****   if (status == HAL_OK)
 3037              		.loc 1 1703 3 is_stmt 1 discriminator 2 view .LVU1055
 3038              		.loc 1 1703 6 is_stmt 0 discriminator 2 view .LVU1056
 3039 0022 28B1     		cbz	r0, .L194
 3040              	.L188:
 3041              	.LVL207:
1704:./STM32F4xx_HAL_Driver/Src/stm32f4xx_hal_rtc_ex.c ****   {
1705:./STM32F4xx_HAL_Driver/Src/stm32f4xx_hal_rtc_ex.c ****     /* Disable the reference clock detection */
1706:./STM32F4xx_HAL_Driver/Src/stm32f4xx_hal_rtc_ex.c ****     __HAL_RTC_CLOCKREF_DETECTION_DISABLE(hrtc);
1707:./STM32F4xx_HAL_Driver/Src/stm32f4xx_hal_rtc_ex.c **** 
1708:./STM32F4xx_HAL_Driver/Src/stm32f4xx_hal_rtc_ex.c ****     /* Exit Initialization mode */
1709:./STM32F4xx_HAL_Driver/Src/stm32f4xx_hal_rtc_ex.c ****     status = RTC_ExitInitMode(hrtc);
1710:./STM32F4xx_HAL_Driver/Src/stm32f4xx_hal_rtc_ex.c ****   }
1711:./STM32F4xx_HAL_Driver/Src/stm32f4xx_hal_rtc_ex.c **** 
1712:./STM32F4xx_HAL_Driver/Src/stm32f4xx_hal_rtc_ex.c ****   if (status == HAL_OK)
1713:./STM32F4xx_HAL_Driver/Src/stm32f4xx_hal_rtc_ex.c ****   {
1714:./STM32F4xx_HAL_Driver/Src/stm32f4xx_hal_rtc_ex.c ****     hrtc->State = HAL_RTC_STATE_READY;
1715:./STM32F4xx_HAL_Driver/Src/stm32f4xx_hal_rtc_ex.c ****   }
1716:./STM32F4xx_HAL_Driver/Src/stm32f4xx_hal_rtc_ex.c **** 
1717:./STM32F4xx_HAL_Driver/Src/stm32f4xx_hal_rtc_ex.c ****   /* Enable the write protection for RTC registers */
1718:./STM32F4xx_HAL_Driver/Src/stm32f4xx_hal_rtc_ex.c ****   __HAL_RTC_WRITEPROTECTION_ENABLE(hrtc);
 3042              		.loc 1 1718 3 is_stmt 1 view .LVU1057
 3043              		.loc 1 1718 3 view .LVU1058
 3044 0024 2368     		ldr	r3, [r4]
 3045 0026 FF22     		movs	r2, #255
 3046 0028 5A62     		str	r2, [r3, #36]
 3047              		.loc 1 1718 3 view .LVU1059
1719:./STM32F4xx_HAL_Driver/Src/stm32f4xx_hal_rtc_ex.c **** 
1720:./STM32F4xx_HAL_Driver/Src/stm32f4xx_hal_rtc_ex.c ****   /* Process Unlocked */
1721:./STM32F4xx_HAL_Driver/Src/stm32f4xx_hal_rtc_ex.c ****   __HAL_UNLOCK(hrtc);
 3048              		.loc 1 1721 3 view .LVU1060
 3049              		.loc 1 1721 3 view .LVU1061
 3050 002a 0023     		movs	r3, #0
 3051 002c 2377     		strb	r3, [r4, #28]
 3052              		.loc 1 1721 3 view .LVU1062
1722:./STM32F4xx_HAL_Driver/Src/stm32f4xx_hal_rtc_ex.c **** 
1723:./STM32F4xx_HAL_Driver/Src/stm32f4xx_hal_rtc_ex.c ****   return status;
 3053              		.loc 1 1723 3 view .LVU1063
1724:./STM32F4xx_HAL_Driver/Src/stm32f4xx_hal_rtc_ex.c **** }
 3054              		.loc 1 1724 1 is_stmt 0 view .LVU1064
 3055 002e 10BD     		pop	{r4, pc}
 3056              	.LVL208:
 3057              	.L194:
1706:./STM32F4xx_HAL_Driver/Src/stm32f4xx_hal_rtc_ex.c **** 
 3058              		.loc 1 1706 5 is_stmt 1 view .LVU1065
 3059 0030 2268     		ldr	r2, [r4]
 3060 0032 9368     		ldr	r3, [r2, #8]
 3061 0034 23F01003 		bic	r3, r3, #16
 3062 0038 9360     		str	r3, [r2, #8]
1709:./STM32F4xx_HAL_Driver/Src/stm32f4xx_hal_rtc_ex.c ****   }
ARM GAS  /tmp/cc9ZOIPt.s 			page 88


 3063              		.loc 1 1709 5 view .LVU1066
1709:./STM32F4xx_HAL_Driver/Src/stm32f4xx_hal_rtc_ex.c ****   }
 3064              		.loc 1 1709 14 is_stmt 0 view .LVU1067
 3065 003a 2046     		mov	r0, r4
 3066              	.LVL209:
1709:./STM32F4xx_HAL_Driver/Src/stm32f4xx_hal_rtc_ex.c ****   }
 3067              		.loc 1 1709 14 view .LVU1068
 3068 003c FFF7FEFF 		bl	RTC_ExitInitMode
 3069              	.LVL210:
1712:./STM32F4xx_HAL_Driver/Src/stm32f4xx_hal_rtc_ex.c ****   {
 3070              		.loc 1 1712 3 is_stmt 1 view .LVU1069
1712:./STM32F4xx_HAL_Driver/Src/stm32f4xx_hal_rtc_ex.c ****   {
 3071              		.loc 1 1712 6 is_stmt 0 view .LVU1070
 3072 0040 0028     		cmp	r0, #0
 3073 0042 EFD1     		bne	.L188
1714:./STM32F4xx_HAL_Driver/Src/stm32f4xx_hal_rtc_ex.c ****   }
 3074              		.loc 1 1714 5 is_stmt 1 view .LVU1071
1714:./STM32F4xx_HAL_Driver/Src/stm32f4xx_hal_rtc_ex.c ****   }
 3075              		.loc 1 1714 17 is_stmt 0 view .LVU1072
 3076 0044 0123     		movs	r3, #1
 3077 0046 6377     		strb	r3, [r4, #29]
 3078 0048 ECE7     		b	.L188
 3079              	.LVL211:
 3080              	.L189:
 3081              	.LCFI39:
 3082              		.cfi_def_cfa_offset 0
 3083              		.cfi_restore 4
 3084              		.cfi_restore 14
1693:./STM32F4xx_HAL_Driver/Src/stm32f4xx_hal_rtc_ex.c **** 
 3085              		.loc 1 1693 3 view .LVU1073
 3086 004a 0220     		movs	r0, #2
 3087              	.LVL212:
 3088              		.loc 1 1724 1 view .LVU1074
 3089 004c 7047     		bx	lr
 3090              		.cfi_endproc
 3091              	.LFE244:
 3093              		.section	.text.HAL_RTCEx_EnableBypassShadow,"ax",%progbits
 3094              		.align	1
 3095              		.global	HAL_RTCEx_EnableBypassShadow
 3096              		.syntax unified
 3097              		.thumb
 3098              		.thumb_func
 3100              	HAL_RTCEx_EnableBypassShadow:
 3101              	.LVL213:
 3102              	.LFB245:
1725:./STM32F4xx_HAL_Driver/Src/stm32f4xx_hal_rtc_ex.c **** 
1726:./STM32F4xx_HAL_Driver/Src/stm32f4xx_hal_rtc_ex.c **** /**
1727:./STM32F4xx_HAL_Driver/Src/stm32f4xx_hal_rtc_ex.c ****   * @brief  Enables the Bypass Shadow feature.
1728:./STM32F4xx_HAL_Driver/Src/stm32f4xx_hal_rtc_ex.c ****   * @param  hrtc pointer to a RTC_HandleTypeDef structure that contains
1729:./STM32F4xx_HAL_Driver/Src/stm32f4xx_hal_rtc_ex.c ****   *                the configuration information for RTC.
1730:./STM32F4xx_HAL_Driver/Src/stm32f4xx_hal_rtc_ex.c ****   * @note   When the Bypass Shadow is enabled the calendar value are taken
1731:./STM32F4xx_HAL_Driver/Src/stm32f4xx_hal_rtc_ex.c ****   *         directly from the Calendar counter.
1732:./STM32F4xx_HAL_Driver/Src/stm32f4xx_hal_rtc_ex.c ****   * @retval HAL status
1733:./STM32F4xx_HAL_Driver/Src/stm32f4xx_hal_rtc_ex.c ****   */
1734:./STM32F4xx_HAL_Driver/Src/stm32f4xx_hal_rtc_ex.c **** HAL_StatusTypeDef HAL_RTCEx_EnableBypassShadow(RTC_HandleTypeDef *hrtc)
1735:./STM32F4xx_HAL_Driver/Src/stm32f4xx_hal_rtc_ex.c **** {
 3103              		.loc 1 1735 1 is_stmt 1 view -0
ARM GAS  /tmp/cc9ZOIPt.s 			page 89


 3104              		.cfi_startproc
 3105              		@ args = 0, pretend = 0, frame = 0
 3106              		@ frame_needed = 0, uses_anonymous_args = 0
 3107              		@ link register save eliminated.
1736:./STM32F4xx_HAL_Driver/Src/stm32f4xx_hal_rtc_ex.c ****   /* Process Locked */
1737:./STM32F4xx_HAL_Driver/Src/stm32f4xx_hal_rtc_ex.c ****   __HAL_LOCK(hrtc);
 3108              		.loc 1 1737 3 view .LVU1076
 3109              		.loc 1 1737 3 view .LVU1077
 3110 0000 037F     		ldrb	r3, [r0, #28]	@ zero_extendqisi2
 3111 0002 012B     		cmp	r3, #1
 3112 0004 16D0     		beq	.L197
 3113              		.loc 1 1737 3 discriminator 2 view .LVU1078
 3114 0006 0122     		movs	r2, #1
 3115 0008 0277     		strb	r2, [r0, #28]
 3116              		.loc 1 1737 3 discriminator 2 view .LVU1079
1738:./STM32F4xx_HAL_Driver/Src/stm32f4xx_hal_rtc_ex.c **** 
1739:./STM32F4xx_HAL_Driver/Src/stm32f4xx_hal_rtc_ex.c ****   hrtc->State = HAL_RTC_STATE_BUSY;
 3117              		.loc 1 1739 3 discriminator 2 view .LVU1080
 3118              		.loc 1 1739 15 is_stmt 0 discriminator 2 view .LVU1081
 3119 000a 0223     		movs	r3, #2
 3120 000c 4377     		strb	r3, [r0, #29]
1740:./STM32F4xx_HAL_Driver/Src/stm32f4xx_hal_rtc_ex.c **** 
1741:./STM32F4xx_HAL_Driver/Src/stm32f4xx_hal_rtc_ex.c ****   /* Disable the write protection for RTC registers */
1742:./STM32F4xx_HAL_Driver/Src/stm32f4xx_hal_rtc_ex.c ****   __HAL_RTC_WRITEPROTECTION_DISABLE(hrtc);
 3121              		.loc 1 1742 3 is_stmt 1 discriminator 2 view .LVU1082
 3122              		.loc 1 1742 3 discriminator 2 view .LVU1083
 3123 000e 0368     		ldr	r3, [r0]
 3124 0010 CA21     		movs	r1, #202
 3125 0012 5962     		str	r1, [r3, #36]
 3126              		.loc 1 1742 3 discriminator 2 view .LVU1084
 3127 0014 0368     		ldr	r3, [r0]
 3128 0016 5321     		movs	r1, #83
 3129 0018 5962     		str	r1, [r3, #36]
 3130              		.loc 1 1742 3 discriminator 2 view .LVU1085
1743:./STM32F4xx_HAL_Driver/Src/stm32f4xx_hal_rtc_ex.c **** 
1744:./STM32F4xx_HAL_Driver/Src/stm32f4xx_hal_rtc_ex.c ****   /* Set the BYPSHAD bit */
1745:./STM32F4xx_HAL_Driver/Src/stm32f4xx_hal_rtc_ex.c ****   hrtc->Instance->CR |= (uint8_t)RTC_CR_BYPSHAD;
 3131              		.loc 1 1745 3 discriminator 2 view .LVU1086
 3132              		.loc 1 1745 7 is_stmt 0 discriminator 2 view .LVU1087
 3133 001a 0168     		ldr	r1, [r0]
 3134              		.loc 1 1745 17 discriminator 2 view .LVU1088
 3135 001c 8B68     		ldr	r3, [r1, #8]
 3136              		.loc 1 1745 22 discriminator 2 view .LVU1089
 3137 001e 43F02003 		orr	r3, r3, #32
 3138 0022 8B60     		str	r3, [r1, #8]
1746:./STM32F4xx_HAL_Driver/Src/stm32f4xx_hal_rtc_ex.c **** 
1747:./STM32F4xx_HAL_Driver/Src/stm32f4xx_hal_rtc_ex.c ****   /* Enable the write protection for RTC registers */
1748:./STM32F4xx_HAL_Driver/Src/stm32f4xx_hal_rtc_ex.c ****   __HAL_RTC_WRITEPROTECTION_ENABLE(hrtc);
 3139              		.loc 1 1748 3 is_stmt 1 discriminator 2 view .LVU1090
 3140              		.loc 1 1748 3 discriminator 2 view .LVU1091
 3141 0024 0368     		ldr	r3, [r0]
 3142 0026 FF21     		movs	r1, #255
 3143 0028 5962     		str	r1, [r3, #36]
 3144              		.loc 1 1748 3 discriminator 2 view .LVU1092
1749:./STM32F4xx_HAL_Driver/Src/stm32f4xx_hal_rtc_ex.c **** 
1750:./STM32F4xx_HAL_Driver/Src/stm32f4xx_hal_rtc_ex.c ****   /* Change RTC state */
1751:./STM32F4xx_HAL_Driver/Src/stm32f4xx_hal_rtc_ex.c ****   hrtc->State = HAL_RTC_STATE_READY;
ARM GAS  /tmp/cc9ZOIPt.s 			page 90


 3145              		.loc 1 1751 3 discriminator 2 view .LVU1093
 3146              		.loc 1 1751 15 is_stmt 0 discriminator 2 view .LVU1094
 3147 002a 4277     		strb	r2, [r0, #29]
1752:./STM32F4xx_HAL_Driver/Src/stm32f4xx_hal_rtc_ex.c **** 
1753:./STM32F4xx_HAL_Driver/Src/stm32f4xx_hal_rtc_ex.c ****   /* Process Unlocked */
1754:./STM32F4xx_HAL_Driver/Src/stm32f4xx_hal_rtc_ex.c ****   __HAL_UNLOCK(hrtc);
 3148              		.loc 1 1754 3 is_stmt 1 discriminator 2 view .LVU1095
 3149              		.loc 1 1754 3 discriminator 2 view .LVU1096
 3150 002c 0023     		movs	r3, #0
 3151 002e 0377     		strb	r3, [r0, #28]
 3152              		.loc 1 1754 3 discriminator 2 view .LVU1097
1755:./STM32F4xx_HAL_Driver/Src/stm32f4xx_hal_rtc_ex.c **** 
1756:./STM32F4xx_HAL_Driver/Src/stm32f4xx_hal_rtc_ex.c ****   return HAL_OK;
 3153              		.loc 1 1756 3 discriminator 2 view .LVU1098
 3154              		.loc 1 1756 10 is_stmt 0 discriminator 2 view .LVU1099
 3155 0030 1846     		mov	r0, r3
 3156              	.LVL214:
 3157              		.loc 1 1756 10 discriminator 2 view .LVU1100
 3158 0032 7047     		bx	lr
 3159              	.LVL215:
 3160              	.L197:
1737:./STM32F4xx_HAL_Driver/Src/stm32f4xx_hal_rtc_ex.c **** 
 3161              		.loc 1 1737 3 view .LVU1101
 3162 0034 0220     		movs	r0, #2
 3163              	.LVL216:
1757:./STM32F4xx_HAL_Driver/Src/stm32f4xx_hal_rtc_ex.c **** }
 3164              		.loc 1 1757 1 view .LVU1102
 3165 0036 7047     		bx	lr
 3166              		.cfi_endproc
 3167              	.LFE245:
 3169              		.section	.text.HAL_RTCEx_DisableBypassShadow,"ax",%progbits
 3170              		.align	1
 3171              		.global	HAL_RTCEx_DisableBypassShadow
 3172              		.syntax unified
 3173              		.thumb
 3174              		.thumb_func
 3176              	HAL_RTCEx_DisableBypassShadow:
 3177              	.LVL217:
 3178              	.LFB246:
1758:./STM32F4xx_HAL_Driver/Src/stm32f4xx_hal_rtc_ex.c **** 
1759:./STM32F4xx_HAL_Driver/Src/stm32f4xx_hal_rtc_ex.c **** /**
1760:./STM32F4xx_HAL_Driver/Src/stm32f4xx_hal_rtc_ex.c ****   * @brief  Disables the Bypass Shadow feature.
1761:./STM32F4xx_HAL_Driver/Src/stm32f4xx_hal_rtc_ex.c ****   * @param  hrtc pointer to a RTC_HandleTypeDef structure that contains
1762:./STM32F4xx_HAL_Driver/Src/stm32f4xx_hal_rtc_ex.c ****   *                the configuration information for RTC.
1763:./STM32F4xx_HAL_Driver/Src/stm32f4xx_hal_rtc_ex.c ****   * @note   When the Bypass Shadow is enabled the calendar value are taken
1764:./STM32F4xx_HAL_Driver/Src/stm32f4xx_hal_rtc_ex.c ****   *         directly from the Calendar counter.
1765:./STM32F4xx_HAL_Driver/Src/stm32f4xx_hal_rtc_ex.c ****   * @retval HAL status
1766:./STM32F4xx_HAL_Driver/Src/stm32f4xx_hal_rtc_ex.c ****   */
1767:./STM32F4xx_HAL_Driver/Src/stm32f4xx_hal_rtc_ex.c **** HAL_StatusTypeDef HAL_RTCEx_DisableBypassShadow(RTC_HandleTypeDef *hrtc)
1768:./STM32F4xx_HAL_Driver/Src/stm32f4xx_hal_rtc_ex.c **** {
 3179              		.loc 1 1768 1 is_stmt 1 view -0
 3180              		.cfi_startproc
 3181              		@ args = 0, pretend = 0, frame = 0
 3182              		@ frame_needed = 0, uses_anonymous_args = 0
 3183              		@ link register save eliminated.
1769:./STM32F4xx_HAL_Driver/Src/stm32f4xx_hal_rtc_ex.c ****   /* Process Locked */
1770:./STM32F4xx_HAL_Driver/Src/stm32f4xx_hal_rtc_ex.c ****   __HAL_LOCK(hrtc);
ARM GAS  /tmp/cc9ZOIPt.s 			page 91


 3184              		.loc 1 1770 3 view .LVU1104
 3185              		.loc 1 1770 3 view .LVU1105
 3186 0000 037F     		ldrb	r3, [r0, #28]	@ zero_extendqisi2
 3187 0002 012B     		cmp	r3, #1
 3188 0004 16D0     		beq	.L200
 3189              		.loc 1 1770 3 discriminator 2 view .LVU1106
 3190 0006 0122     		movs	r2, #1
 3191 0008 0277     		strb	r2, [r0, #28]
 3192              		.loc 1 1770 3 discriminator 2 view .LVU1107
1771:./STM32F4xx_HAL_Driver/Src/stm32f4xx_hal_rtc_ex.c **** 
1772:./STM32F4xx_HAL_Driver/Src/stm32f4xx_hal_rtc_ex.c ****   hrtc->State = HAL_RTC_STATE_BUSY;
 3193              		.loc 1 1772 3 discriminator 2 view .LVU1108
 3194              		.loc 1 1772 15 is_stmt 0 discriminator 2 view .LVU1109
 3195 000a 0223     		movs	r3, #2
 3196 000c 4377     		strb	r3, [r0, #29]
1773:./STM32F4xx_HAL_Driver/Src/stm32f4xx_hal_rtc_ex.c **** 
1774:./STM32F4xx_HAL_Driver/Src/stm32f4xx_hal_rtc_ex.c ****   /* Disable the write protection for RTC registers */
1775:./STM32F4xx_HAL_Driver/Src/stm32f4xx_hal_rtc_ex.c ****   __HAL_RTC_WRITEPROTECTION_DISABLE(hrtc);
 3197              		.loc 1 1775 3 is_stmt 1 discriminator 2 view .LVU1110
 3198              		.loc 1 1775 3 discriminator 2 view .LVU1111
 3199 000e 0368     		ldr	r3, [r0]
 3200 0010 CA21     		movs	r1, #202
 3201 0012 5962     		str	r1, [r3, #36]
 3202              		.loc 1 1775 3 discriminator 2 view .LVU1112
 3203 0014 0368     		ldr	r3, [r0]
 3204 0016 5321     		movs	r1, #83
 3205 0018 5962     		str	r1, [r3, #36]
 3206              		.loc 1 1775 3 discriminator 2 view .LVU1113
1776:./STM32F4xx_HAL_Driver/Src/stm32f4xx_hal_rtc_ex.c **** 
1777:./STM32F4xx_HAL_Driver/Src/stm32f4xx_hal_rtc_ex.c ****   /* Reset the BYPSHAD bit */
1778:./STM32F4xx_HAL_Driver/Src/stm32f4xx_hal_rtc_ex.c ****   hrtc->Instance->CR &= (uint8_t)~RTC_CR_BYPSHAD;
 3207              		.loc 1 1778 3 discriminator 2 view .LVU1114
 3208              		.loc 1 1778 7 is_stmt 0 discriminator 2 view .LVU1115
 3209 001a 0168     		ldr	r1, [r0]
 3210              		.loc 1 1778 17 discriminator 2 view .LVU1116
 3211 001c 8B68     		ldr	r3, [r1, #8]
 3212              		.loc 1 1778 22 discriminator 2 view .LVU1117
 3213 001e 03F0DF03 		and	r3, r3, #223
 3214 0022 8B60     		str	r3, [r1, #8]
1779:./STM32F4xx_HAL_Driver/Src/stm32f4xx_hal_rtc_ex.c **** 
1780:./STM32F4xx_HAL_Driver/Src/stm32f4xx_hal_rtc_ex.c ****   /* Enable the write protection for RTC registers */
1781:./STM32F4xx_HAL_Driver/Src/stm32f4xx_hal_rtc_ex.c ****   __HAL_RTC_WRITEPROTECTION_ENABLE(hrtc);
 3215              		.loc 1 1781 3 is_stmt 1 discriminator 2 view .LVU1118
 3216              		.loc 1 1781 3 discriminator 2 view .LVU1119
 3217 0024 0368     		ldr	r3, [r0]
 3218 0026 FF21     		movs	r1, #255
 3219 0028 5962     		str	r1, [r3, #36]
 3220              		.loc 1 1781 3 discriminator 2 view .LVU1120
1782:./STM32F4xx_HAL_Driver/Src/stm32f4xx_hal_rtc_ex.c **** 
1783:./STM32F4xx_HAL_Driver/Src/stm32f4xx_hal_rtc_ex.c ****   /* Change RTC state */
1784:./STM32F4xx_HAL_Driver/Src/stm32f4xx_hal_rtc_ex.c ****   hrtc->State = HAL_RTC_STATE_READY;
 3221              		.loc 1 1784 3 discriminator 2 view .LVU1121
 3222              		.loc 1 1784 15 is_stmt 0 discriminator 2 view .LVU1122
 3223 002a 4277     		strb	r2, [r0, #29]
1785:./STM32F4xx_HAL_Driver/Src/stm32f4xx_hal_rtc_ex.c **** 
1786:./STM32F4xx_HAL_Driver/Src/stm32f4xx_hal_rtc_ex.c ****   /* Process Unlocked */
1787:./STM32F4xx_HAL_Driver/Src/stm32f4xx_hal_rtc_ex.c ****   __HAL_UNLOCK(hrtc);
ARM GAS  /tmp/cc9ZOIPt.s 			page 92


 3224              		.loc 1 1787 3 is_stmt 1 discriminator 2 view .LVU1123
 3225              		.loc 1 1787 3 discriminator 2 view .LVU1124
 3226 002c 0023     		movs	r3, #0
 3227 002e 0377     		strb	r3, [r0, #28]
 3228              		.loc 1 1787 3 discriminator 2 view .LVU1125
1788:./STM32F4xx_HAL_Driver/Src/stm32f4xx_hal_rtc_ex.c **** 
1789:./STM32F4xx_HAL_Driver/Src/stm32f4xx_hal_rtc_ex.c ****   return HAL_OK;
 3229              		.loc 1 1789 3 discriminator 2 view .LVU1126
 3230              		.loc 1 1789 10 is_stmt 0 discriminator 2 view .LVU1127
 3231 0030 1846     		mov	r0, r3
 3232              	.LVL218:
 3233              		.loc 1 1789 10 discriminator 2 view .LVU1128
 3234 0032 7047     		bx	lr
 3235              	.LVL219:
 3236              	.L200:
1770:./STM32F4xx_HAL_Driver/Src/stm32f4xx_hal_rtc_ex.c **** 
 3237              		.loc 1 1770 3 view .LVU1129
 3238 0034 0220     		movs	r0, #2
 3239              	.LVL220:
1790:./STM32F4xx_HAL_Driver/Src/stm32f4xx_hal_rtc_ex.c **** }
 3240              		.loc 1 1790 1 view .LVU1130
 3241 0036 7047     		bx	lr
 3242              		.cfi_endproc
 3243              	.LFE246:
 3245              		.section	.text.HAL_RTCEx_AlarmBEventCallback,"ax",%progbits
 3246              		.align	1
 3247              		.weak	HAL_RTCEx_AlarmBEventCallback
 3248              		.syntax unified
 3249              		.thumb
 3250              		.thumb_func
 3252              	HAL_RTCEx_AlarmBEventCallback:
 3253              	.LVL221:
 3254              	.LFB247:
1791:./STM32F4xx_HAL_Driver/Src/stm32f4xx_hal_rtc_ex.c **** 
1792:./STM32F4xx_HAL_Driver/Src/stm32f4xx_hal_rtc_ex.c **** /**
1793:./STM32F4xx_HAL_Driver/Src/stm32f4xx_hal_rtc_ex.c ****   * @}
1794:./STM32F4xx_HAL_Driver/Src/stm32f4xx_hal_rtc_ex.c ****   */
1795:./STM32F4xx_HAL_Driver/Src/stm32f4xx_hal_rtc_ex.c **** 
1796:./STM32F4xx_HAL_Driver/Src/stm32f4xx_hal_rtc_ex.c **** /** @defgroup RTCEx_Exported_Functions_Group4 Extended features functions
1797:./STM32F4xx_HAL_Driver/Src/stm32f4xx_hal_rtc_ex.c ****   * @brief    Extended features functions
1798:./STM32F4xx_HAL_Driver/Src/stm32f4xx_hal_rtc_ex.c ****   *
1799:./STM32F4xx_HAL_Driver/Src/stm32f4xx_hal_rtc_ex.c **** @verbatim
1800:./STM32F4xx_HAL_Driver/Src/stm32f4xx_hal_rtc_ex.c ****  ===============================================================================
1801:./STM32F4xx_HAL_Driver/Src/stm32f4xx_hal_rtc_ex.c ****                  ##### Extended features functions #####
1802:./STM32F4xx_HAL_Driver/Src/stm32f4xx_hal_rtc_ex.c ****  ===============================================================================
1803:./STM32F4xx_HAL_Driver/Src/stm32f4xx_hal_rtc_ex.c ****     [..]  This section provides functions allowing to:
1804:./STM32F4xx_HAL_Driver/Src/stm32f4xx_hal_rtc_ex.c ****       (+) RTC Alarm B callback
1805:./STM32F4xx_HAL_Driver/Src/stm32f4xx_hal_rtc_ex.c ****       (+) RTC Poll for Alarm B request
1806:./STM32F4xx_HAL_Driver/Src/stm32f4xx_hal_rtc_ex.c **** 
1807:./STM32F4xx_HAL_Driver/Src/stm32f4xx_hal_rtc_ex.c **** @endverbatim
1808:./STM32F4xx_HAL_Driver/Src/stm32f4xx_hal_rtc_ex.c ****   * @{
1809:./STM32F4xx_HAL_Driver/Src/stm32f4xx_hal_rtc_ex.c ****   */
1810:./STM32F4xx_HAL_Driver/Src/stm32f4xx_hal_rtc_ex.c **** 
1811:./STM32F4xx_HAL_Driver/Src/stm32f4xx_hal_rtc_ex.c **** /**
1812:./STM32F4xx_HAL_Driver/Src/stm32f4xx_hal_rtc_ex.c ****   * @brief  Alarm B callback.
1813:./STM32F4xx_HAL_Driver/Src/stm32f4xx_hal_rtc_ex.c ****   * @param  hrtc pointer to a RTC_HandleTypeDef structure that contains
1814:./STM32F4xx_HAL_Driver/Src/stm32f4xx_hal_rtc_ex.c ****   *                the configuration information for RTC.
ARM GAS  /tmp/cc9ZOIPt.s 			page 93


1815:./STM32F4xx_HAL_Driver/Src/stm32f4xx_hal_rtc_ex.c ****   * @retval None
1816:./STM32F4xx_HAL_Driver/Src/stm32f4xx_hal_rtc_ex.c ****   */
1817:./STM32F4xx_HAL_Driver/Src/stm32f4xx_hal_rtc_ex.c **** __weak void HAL_RTCEx_AlarmBEventCallback(RTC_HandleTypeDef *hrtc)
1818:./STM32F4xx_HAL_Driver/Src/stm32f4xx_hal_rtc_ex.c **** {
 3255              		.loc 1 1818 1 is_stmt 1 view -0
 3256              		.cfi_startproc
 3257              		@ args = 0, pretend = 0, frame = 0
 3258              		@ frame_needed = 0, uses_anonymous_args = 0
 3259              		@ link register save eliminated.
1819:./STM32F4xx_HAL_Driver/Src/stm32f4xx_hal_rtc_ex.c ****   /* Prevent unused argument(s) compilation warning */
1820:./STM32F4xx_HAL_Driver/Src/stm32f4xx_hal_rtc_ex.c ****   UNUSED(hrtc);
 3260              		.loc 1 1820 3 view .LVU1132
1821:./STM32F4xx_HAL_Driver/Src/stm32f4xx_hal_rtc_ex.c **** 
1822:./STM32F4xx_HAL_Driver/Src/stm32f4xx_hal_rtc_ex.c ****   /* NOTE: This function should not be modified, when the callback is needed,
1823:./STM32F4xx_HAL_Driver/Src/stm32f4xx_hal_rtc_ex.c ****            the HAL_RTCEx_AlarmBEventCallback could be implemented in the user file
1824:./STM32F4xx_HAL_Driver/Src/stm32f4xx_hal_rtc_ex.c ****    */
1825:./STM32F4xx_HAL_Driver/Src/stm32f4xx_hal_rtc_ex.c **** }
 3261              		.loc 1 1825 1 is_stmt 0 view .LVU1133
 3262 0000 7047     		bx	lr
 3263              		.cfi_endproc
 3264              	.LFE247:
 3266              		.section	.text.HAL_RTCEx_PollForAlarmBEvent,"ax",%progbits
 3267              		.align	1
 3268              		.global	HAL_RTCEx_PollForAlarmBEvent
 3269              		.syntax unified
 3270              		.thumb
 3271              		.thumb_func
 3273              	HAL_RTCEx_PollForAlarmBEvent:
 3274              	.LVL222:
 3275              	.LFB248:
1826:./STM32F4xx_HAL_Driver/Src/stm32f4xx_hal_rtc_ex.c **** 
1827:./STM32F4xx_HAL_Driver/Src/stm32f4xx_hal_rtc_ex.c **** /**
1828:./STM32F4xx_HAL_Driver/Src/stm32f4xx_hal_rtc_ex.c ****   * @brief  Handles Alarm B Polling request.
1829:./STM32F4xx_HAL_Driver/Src/stm32f4xx_hal_rtc_ex.c ****   * @param  hrtc pointer to a RTC_HandleTypeDef structure that contains
1830:./STM32F4xx_HAL_Driver/Src/stm32f4xx_hal_rtc_ex.c ****   *                the configuration information for RTC.
1831:./STM32F4xx_HAL_Driver/Src/stm32f4xx_hal_rtc_ex.c ****   * @param  Timeout Timeout duration
1832:./STM32F4xx_HAL_Driver/Src/stm32f4xx_hal_rtc_ex.c ****   * @retval HAL status
1833:./STM32F4xx_HAL_Driver/Src/stm32f4xx_hal_rtc_ex.c ****   */
1834:./STM32F4xx_HAL_Driver/Src/stm32f4xx_hal_rtc_ex.c **** HAL_StatusTypeDef HAL_RTCEx_PollForAlarmBEvent(RTC_HandleTypeDef *hrtc, uint32_t Timeout)
1835:./STM32F4xx_HAL_Driver/Src/stm32f4xx_hal_rtc_ex.c **** {
 3276              		.loc 1 1835 1 is_stmt 1 view -0
 3277              		.cfi_startproc
 3278              		@ args = 0, pretend = 0, frame = 0
 3279              		@ frame_needed = 0, uses_anonymous_args = 0
 3280              		.loc 1 1835 1 is_stmt 0 view .LVU1135
 3281 0000 70B5     		push	{r4, r5, r6, lr}
 3282              	.LCFI40:
 3283              		.cfi_def_cfa_offset 16
 3284              		.cfi_offset 4, -16
 3285              		.cfi_offset 5, -12
 3286              		.cfi_offset 6, -8
 3287              		.cfi_offset 14, -4
 3288 0002 0446     		mov	r4, r0
 3289 0004 0D46     		mov	r5, r1
1836:./STM32F4xx_HAL_Driver/Src/stm32f4xx_hal_rtc_ex.c ****   uint32_t tickstart = 0U;
 3290              		.loc 1 1836 3 is_stmt 1 view .LVU1136
 3291              	.LVL223:
ARM GAS  /tmp/cc9ZOIPt.s 			page 94


1837:./STM32F4xx_HAL_Driver/Src/stm32f4xx_hal_rtc_ex.c **** 
1838:./STM32F4xx_HAL_Driver/Src/stm32f4xx_hal_rtc_ex.c ****   /* Get tick */
1839:./STM32F4xx_HAL_Driver/Src/stm32f4xx_hal_rtc_ex.c ****   tickstart = HAL_GetTick();
 3292              		.loc 1 1839 3 view .LVU1137
 3293              		.loc 1 1839 15 is_stmt 0 view .LVU1138
 3294 0006 FFF7FEFF 		bl	HAL_GetTick
 3295              	.LVL224:
 3296              		.loc 1 1839 15 view .LVU1139
 3297 000a 0646     		mov	r6, r0
 3298              	.LVL225:
1840:./STM32F4xx_HAL_Driver/Src/stm32f4xx_hal_rtc_ex.c **** 
1841:./STM32F4xx_HAL_Driver/Src/stm32f4xx_hal_rtc_ex.c ****   /* Wait till RTC ALRBF flag is set and if timeout is reached exit */
1842:./STM32F4xx_HAL_Driver/Src/stm32f4xx_hal_rtc_ex.c ****   while (__HAL_RTC_ALARM_GET_FLAG(hrtc, RTC_FLAG_ALRBF) == 0U)
 3299              		.loc 1 1842 3 is_stmt 1 view .LVU1140
 3300              	.L204:
 3301              		.loc 1 1842 57 view .LVU1141
 3302              		.loc 1 1842 10 is_stmt 0 view .LVU1142
 3303 000c 2368     		ldr	r3, [r4]
 3304 000e DA68     		ldr	r2, [r3, #12]
 3305              		.loc 1 1842 57 view .LVU1143
 3306 0010 12F4007F 		tst	r2, #512
 3307 0014 0BD1     		bne	.L209
1843:./STM32F4xx_HAL_Driver/Src/stm32f4xx_hal_rtc_ex.c ****   {
1844:./STM32F4xx_HAL_Driver/Src/stm32f4xx_hal_rtc_ex.c ****     if (Timeout != HAL_MAX_DELAY)
 3308              		.loc 1 1844 5 is_stmt 1 view .LVU1144
 3309              		.loc 1 1844 8 is_stmt 0 view .LVU1145
 3310 0016 B5F1FF3F 		cmp	r5, #-1
 3311 001a F7D0     		beq	.L204
1845:./STM32F4xx_HAL_Driver/Src/stm32f4xx_hal_rtc_ex.c ****     {
1846:./STM32F4xx_HAL_Driver/Src/stm32f4xx_hal_rtc_ex.c ****       if ((Timeout == 0U) || ((HAL_GetTick() - tickstart) > Timeout))
 3312              		.loc 1 1846 7 is_stmt 1 view .LVU1146
 3313              		.loc 1 1846 10 is_stmt 0 view .LVU1147
 3314 001c 25B1     		cbz	r5, .L205
 3315              		.loc 1 1846 32 discriminator 1 view .LVU1148
 3316 001e FFF7FEFF 		bl	HAL_GetTick
 3317              	.LVL226:
 3318              		.loc 1 1846 46 discriminator 1 view .LVU1149
 3319 0022 801B     		subs	r0, r0, r6
 3320              		.loc 1 1846 27 discriminator 1 view .LVU1150
 3321 0024 A842     		cmp	r0, r5
 3322 0026 F1D9     		bls	.L204
 3323              	.L205:
1847:./STM32F4xx_HAL_Driver/Src/stm32f4xx_hal_rtc_ex.c ****       {
1848:./STM32F4xx_HAL_Driver/Src/stm32f4xx_hal_rtc_ex.c ****         hrtc->State = HAL_RTC_STATE_TIMEOUT;
 3324              		.loc 1 1848 9 is_stmt 1 view .LVU1151
 3325              		.loc 1 1848 21 is_stmt 0 view .LVU1152
 3326 0028 0320     		movs	r0, #3
 3327 002a 6077     		strb	r0, [r4, #29]
1849:./STM32F4xx_HAL_Driver/Src/stm32f4xx_hal_rtc_ex.c ****         return HAL_TIMEOUT;
 3328              		.loc 1 1849 9 is_stmt 1 view .LVU1153
 3329              		.loc 1 1849 16 is_stmt 0 view .LVU1154
 3330 002c 07E0     		b	.L206
 3331              	.L209:
1850:./STM32F4xx_HAL_Driver/Src/stm32f4xx_hal_rtc_ex.c ****       }
1851:./STM32F4xx_HAL_Driver/Src/stm32f4xx_hal_rtc_ex.c ****     }
1852:./STM32F4xx_HAL_Driver/Src/stm32f4xx_hal_rtc_ex.c ****   }
1853:./STM32F4xx_HAL_Driver/Src/stm32f4xx_hal_rtc_ex.c **** 
ARM GAS  /tmp/cc9ZOIPt.s 			page 95


1854:./STM32F4xx_HAL_Driver/Src/stm32f4xx_hal_rtc_ex.c ****   /* Clear the Alarm flag */
1855:./STM32F4xx_HAL_Driver/Src/stm32f4xx_hal_rtc_ex.c ****   __HAL_RTC_ALARM_CLEAR_FLAG(hrtc, RTC_FLAG_ALRBF);
 3332              		.loc 1 1855 3 is_stmt 1 view .LVU1155
 3333 002e DA68     		ldr	r2, [r3, #12]
 3334 0030 D2B2     		uxtb	r2, r2
 3335 0032 62F42072 		orn	r2, r2, #640
 3336 0036 DA60     		str	r2, [r3, #12]
1856:./STM32F4xx_HAL_Driver/Src/stm32f4xx_hal_rtc_ex.c **** 
1857:./STM32F4xx_HAL_Driver/Src/stm32f4xx_hal_rtc_ex.c ****   /* Change RTC state */
1858:./STM32F4xx_HAL_Driver/Src/stm32f4xx_hal_rtc_ex.c ****   hrtc->State = HAL_RTC_STATE_READY;
 3337              		.loc 1 1858 3 view .LVU1156
 3338              		.loc 1 1858 15 is_stmt 0 view .LVU1157
 3339 0038 0123     		movs	r3, #1
 3340 003a 6377     		strb	r3, [r4, #29]
1859:./STM32F4xx_HAL_Driver/Src/stm32f4xx_hal_rtc_ex.c **** 
1860:./STM32F4xx_HAL_Driver/Src/stm32f4xx_hal_rtc_ex.c ****   return HAL_OK;
 3341              		.loc 1 1860 3 is_stmt 1 view .LVU1158
 3342              		.loc 1 1860 10 is_stmt 0 view .LVU1159
 3343 003c 0020     		movs	r0, #0
 3344              	.L206:
1861:./STM32F4xx_HAL_Driver/Src/stm32f4xx_hal_rtc_ex.c **** }
 3345              		.loc 1 1861 1 view .LVU1160
 3346 003e 70BD     		pop	{r4, r5, r6, pc}
 3347              		.loc 1 1861 1 view .LVU1161
 3348              		.cfi_endproc
 3349              	.LFE248:
 3351              		.text
 3352              	.Letext0:
 3353              		.file 2 "/usr/share/arm-gnu-toolchain/arm-none-eabi/include/machine/_default_types.h"
 3354              		.file 3 "/usr/share/arm-gnu-toolchain/arm-none-eabi/include/sys/_stdint.h"
 3355              		.file 4 "../../CMSIS/Device/ST/STM32F4xx/Include/stm32f413xx.h"
 3356              		.file 5 "./STM32F4xx_HAL_Driver/Inc/stm32f4xx_hal_def.h"
 3357              		.file 6 "./STM32F4xx_HAL_Driver/Inc/stm32f4xx_hal_rtc.h"
 3358              		.file 7 "./STM32F4xx_HAL_Driver/Inc/stm32f4xx_hal_rtc_ex.h"
 3359              		.file 8 "../../CMSIS/Device/ST/STM32F4xx/Include/system_stm32f4xx.h"
 3360              		.file 9 "./STM32F4xx_HAL_Driver/Inc/stm32f4xx_hal.h"
ARM GAS  /tmp/cc9ZOIPt.s 			page 96


DEFINED SYMBOLS
                            *ABS*:0000000000000000 stm32f4xx_hal_rtc_ex.c
     /tmp/cc9ZOIPt.s:21     .text.HAL_RTCEx_SetTimeStamp:0000000000000000 $t
     /tmp/cc9ZOIPt.s:27     .text.HAL_RTCEx_SetTimeStamp:0000000000000000 HAL_RTCEx_SetTimeStamp
     /tmp/cc9ZOIPt.s:160    .text.HAL_RTCEx_SetTimeStamp_IT:0000000000000000 $t
     /tmp/cc9ZOIPt.s:166    .text.HAL_RTCEx_SetTimeStamp_IT:0000000000000000 HAL_RTCEx_SetTimeStamp_IT
     /tmp/cc9ZOIPt.s:312    .text.HAL_RTCEx_SetTimeStamp_IT:0000000000000094 $d
     /tmp/cc9ZOIPt.s:317    .text.HAL_RTCEx_DeactivateTimeStamp:0000000000000000 $t
     /tmp/cc9ZOIPt.s:323    .text.HAL_RTCEx_DeactivateTimeStamp:0000000000000000 HAL_RTCEx_DeactivateTimeStamp
     /tmp/cc9ZOIPt.s:409    .text.HAL_RTCEx_GetTimeStamp:0000000000000000 $t
     /tmp/cc9ZOIPt.s:415    .text.HAL_RTCEx_GetTimeStamp:0000000000000000 HAL_RTCEx_GetTimeStamp
     /tmp/cc9ZOIPt.s:561    .text.HAL_RTCEx_SetTamper:0000000000000000 $t
     /tmp/cc9ZOIPt.s:567    .text.HAL_RTCEx_SetTamper:0000000000000000 HAL_RTCEx_SetTamper
     /tmp/cc9ZOIPt.s:708    .text.HAL_RTCEx_SetTamper_IT:0000000000000000 $t
     /tmp/cc9ZOIPt.s:714    .text.HAL_RTCEx_SetTamper_IT:0000000000000000 HAL_RTCEx_SetTamper_IT
     /tmp/cc9ZOIPt.s:863    .text.HAL_RTCEx_SetTamper_IT:0000000000000078 $d
     /tmp/cc9ZOIPt.s:868    .text.HAL_RTCEx_DeactivateTamper:0000000000000000 $t
     /tmp/cc9ZOIPt.s:874    .text.HAL_RTCEx_DeactivateTamper:0000000000000000 HAL_RTCEx_DeactivateTamper
     /tmp/cc9ZOIPt.s:938    .text.HAL_RTCEx_TimeStampEventCallback:0000000000000000 $t
     /tmp/cc9ZOIPt.s:944    .text.HAL_RTCEx_TimeStampEventCallback:0000000000000000 HAL_RTCEx_TimeStampEventCallback
     /tmp/cc9ZOIPt.s:959    .text.HAL_RTCEx_Tamper1EventCallback:0000000000000000 $t
     /tmp/cc9ZOIPt.s:965    .text.HAL_RTCEx_Tamper1EventCallback:0000000000000000 HAL_RTCEx_Tamper1EventCallback
     /tmp/cc9ZOIPt.s:980    .text.HAL_RTCEx_TamperTimeStampIRQHandler:0000000000000000 $t
     /tmp/cc9ZOIPt.s:986    .text.HAL_RTCEx_TamperTimeStampIRQHandler:0000000000000000 HAL_RTCEx_TamperTimeStampIRQHandler
     /tmp/cc9ZOIPt.s:1066   .text.HAL_RTCEx_TamperTimeStampIRQHandler:000000000000005c $d
     /tmp/cc9ZOIPt.s:1071   .text.HAL_RTCEx_PollForTimeStampEvent:0000000000000000 $t
     /tmp/cc9ZOIPt.s:1077   .text.HAL_RTCEx_PollForTimeStampEvent:0000000000000000 HAL_RTCEx_PollForTimeStampEvent
     /tmp/cc9ZOIPt.s:1175   .text.HAL_RTCEx_PollForTamper1Event:0000000000000000 $t
     /tmp/cc9ZOIPt.s:1181   .text.HAL_RTCEx_PollForTamper1Event:0000000000000000 HAL_RTCEx_PollForTamper1Event
     /tmp/cc9ZOIPt.s:1260   .text.HAL_RTCEx_SetWakeUpTimer:0000000000000000 $t
     /tmp/cc9ZOIPt.s:1266   .text.HAL_RTCEx_SetWakeUpTimer:0000000000000000 HAL_RTCEx_SetWakeUpTimer
     /tmp/cc9ZOIPt.s:1477   .text.HAL_RTCEx_SetWakeUpTimer_IT:0000000000000000 $t
     /tmp/cc9ZOIPt.s:1483   .text.HAL_RTCEx_SetWakeUpTimer_IT:0000000000000000 HAL_RTCEx_SetWakeUpTimer_IT
     /tmp/cc9ZOIPt.s:1723   .text.HAL_RTCEx_SetWakeUpTimer_IT:00000000000000ec $d
     /tmp/cc9ZOIPt.s:1730   .text.HAL_RTCEx_DeactivateWakeUpTimer:0000000000000000 $t
     /tmp/cc9ZOIPt.s:1736   .text.HAL_RTCEx_DeactivateWakeUpTimer:0000000000000000 HAL_RTCEx_DeactivateWakeUpTimer
     /tmp/cc9ZOIPt.s:1861   .text.HAL_RTCEx_GetWakeUpTimer:0000000000000000 $t
     /tmp/cc9ZOIPt.s:1867   .text.HAL_RTCEx_GetWakeUpTimer:0000000000000000 HAL_RTCEx_GetWakeUpTimer
     /tmp/cc9ZOIPt.s:1888   .text.HAL_RTCEx_WakeUpTimerEventCallback:0000000000000000 $t
     /tmp/cc9ZOIPt.s:1894   .text.HAL_RTCEx_WakeUpTimerEventCallback:0000000000000000 HAL_RTCEx_WakeUpTimerEventCallback
     /tmp/cc9ZOIPt.s:1909   .text.HAL_RTCEx_WakeUpTimerIRQHandler:0000000000000000 $t
     /tmp/cc9ZOIPt.s:1915   .text.HAL_RTCEx_WakeUpTimerIRQHandler:0000000000000000 HAL_RTCEx_WakeUpTimerIRQHandler
     /tmp/cc9ZOIPt.s:1963   .text.HAL_RTCEx_WakeUpTimerIRQHandler:0000000000000030 $d
     /tmp/cc9ZOIPt.s:1968   .text.HAL_RTCEx_PollForWakeUpTimerEvent:0000000000000000 $t
     /tmp/cc9ZOIPt.s:1974   .text.HAL_RTCEx_PollForWakeUpTimerEvent:0000000000000000 HAL_RTCEx_PollForWakeUpTimerEvent
     /tmp/cc9ZOIPt.s:2053   .text.HAL_RTCEx_BKUPWrite:0000000000000000 $t
     /tmp/cc9ZOIPt.s:2059   .text.HAL_RTCEx_BKUPWrite:0000000000000000 HAL_RTCEx_BKUPWrite
     /tmp/cc9ZOIPt.s:2085   .text.HAL_RTCEx_BKUPRead:0000000000000000 $t
     /tmp/cc9ZOIPt.s:2091   .text.HAL_RTCEx_BKUPRead:0000000000000000 HAL_RTCEx_BKUPRead
     /tmp/cc9ZOIPt.s:2118   .text.HAL_RTCEx_SetCoarseCalib:0000000000000000 $t
     /tmp/cc9ZOIPt.s:2124   .text.HAL_RTCEx_SetCoarseCalib:0000000000000000 HAL_RTCEx_SetCoarseCalib
     /tmp/cc9ZOIPt.s:2241   .text.HAL_RTCEx_DeactivateCoarseCalib:0000000000000000 $t
     /tmp/cc9ZOIPt.s:2247   .text.HAL_RTCEx_DeactivateCoarseCalib:0000000000000000 HAL_RTCEx_DeactivateCoarseCalib
     /tmp/cc9ZOIPt.s:2346   .text.HAL_RTCEx_SetSmoothCalib:0000000000000000 $t
     /tmp/cc9ZOIPt.s:2352   .text.HAL_RTCEx_SetSmoothCalib:0000000000000000 HAL_RTCEx_SetSmoothCalib
     /tmp/cc9ZOIPt.s:2502   .text.HAL_RTCEx_SetSynchroShift:0000000000000000 $t
     /tmp/cc9ZOIPt.s:2508   .text.HAL_RTCEx_SetSynchroShift:0000000000000000 HAL_RTCEx_SetSynchroShift
ARM GAS  /tmp/cc9ZOIPt.s 			page 97


     /tmp/cc9ZOIPt.s:2710   .text.HAL_RTCEx_SetCalibrationOutPut:0000000000000000 $t
     /tmp/cc9ZOIPt.s:2716   .text.HAL_RTCEx_SetCalibrationOutPut:0000000000000000 HAL_RTCEx_SetCalibrationOutPut
     /tmp/cc9ZOIPt.s:2811   .text.HAL_RTCEx_DeactivateCalibrationOutPut:0000000000000000 $t
     /tmp/cc9ZOIPt.s:2817   .text.HAL_RTCEx_DeactivateCalibrationOutPut:0000000000000000 HAL_RTCEx_DeactivateCalibrationOutPut
     /tmp/cc9ZOIPt.s:2884   .text.HAL_RTCEx_SetRefClock:0000000000000000 $t
     /tmp/cc9ZOIPt.s:2890   .text.HAL_RTCEx_SetRefClock:0000000000000000 HAL_RTCEx_SetRefClock
     /tmp/cc9ZOIPt.s:2989   .text.HAL_RTCEx_DeactivateRefClock:0000000000000000 $t
     /tmp/cc9ZOIPt.s:2995   .text.HAL_RTCEx_DeactivateRefClock:0000000000000000 HAL_RTCEx_DeactivateRefClock
     /tmp/cc9ZOIPt.s:3094   .text.HAL_RTCEx_EnableBypassShadow:0000000000000000 $t
     /tmp/cc9ZOIPt.s:3100   .text.HAL_RTCEx_EnableBypassShadow:0000000000000000 HAL_RTCEx_EnableBypassShadow
     /tmp/cc9ZOIPt.s:3170   .text.HAL_RTCEx_DisableBypassShadow:0000000000000000 $t
     /tmp/cc9ZOIPt.s:3176   .text.HAL_RTCEx_DisableBypassShadow:0000000000000000 HAL_RTCEx_DisableBypassShadow
     /tmp/cc9ZOIPt.s:3246   .text.HAL_RTCEx_AlarmBEventCallback:0000000000000000 $t
     /tmp/cc9ZOIPt.s:3252   .text.HAL_RTCEx_AlarmBEventCallback:0000000000000000 HAL_RTCEx_AlarmBEventCallback
     /tmp/cc9ZOIPt.s:3267   .text.HAL_RTCEx_PollForAlarmBEvent:0000000000000000 $t
     /tmp/cc9ZOIPt.s:3273   .text.HAL_RTCEx_PollForAlarmBEvent:0000000000000000 HAL_RTCEx_PollForAlarmBEvent

UNDEFINED SYMBOLS
RTC_Bcd2ToByte
HAL_GetTick
SystemCoreClock
RTC_EnterInitMode
RTC_ExitInitMode
HAL_RTC_WaitForSynchro
